  .file "video.c"
  .text
  .align  2
  .global render_scanline_text_base_normal
  .type render_scanline_text_base_normal, %function
render_scanline_text_base_normal:
  @ args = 0, pretend = 0, frame = 8
  @ frame_needed = 0, uses_anonymous_args = 0
  ldr ip, .L516
  stmfd sp!, {r4, r5, r6, r7, r8, r9, sl, fp, lr}
  add r5, ip, r0, asl #2
  ldrh  lr, [r5, #18]
  ldrh  r4, [ip, #6]
  add ip, ip, r0, asl #1
  add r4, r4, lr
  mov r7, r4, asl #23
  ldrh  r6, [ip, #8]
  mov r7, r7, lsr #23
  ldrh  r0, [r5, #16]
  cmp r7, #255
  movls lr, #0
  movhi lr, #1
  mov r5, r6, lsr #14
  rsb fp, r1, r2
  ldr r2, .L516+4
  ands  lr, lr, r5, lsr #1
  add r8, r3, r1, asl #1
  mov ip, r6, asl #3
  subne r3, r7, #256
  ldr r9, .L516+8
  ldr r2, [r2, r5, asl #2]
  movne r3, r3, lsr #3
  moveq r3, r4, asl #3
  add r0, r0, r1
  and ip, ip, #63488
  addne r3, r3, r2, lsr #3
  andeq r3, r3, #1984
  add ip, ip, r9
  mov r0, r0, asl #23
  addne r4, ip, r3, asl #6
  addeq r4, ip, r3
  mov r0, r0, lsr #23
  tst r5, #1
  andeq r0, r0, #255
  sub sp, sp, #8
  moveq r3, r0, lsr #3
  addeq sl, r4, r3, asl #1
  streq r4, [sp, #0]
  beq .L9
  cmp r0, #255
  subhi r0, r0, #256
  movhi r3, r0, lsr #3
  movls r3, r0, lsr #3
  addhi r3, r4, r3, asl #1
  addls sl, r4, r3, asl #1
  addls r4, r4, #2048
  addhi sl, r3, #2048
  strhi r4, [sp, #0]
  strls r4, [sp, #0]
.L9:
  ands  r5, r6, #128
  beq .L10
  and r3, r7, #7
  mov r2, r6, asl #12
  and r1, r0, #255
  mov r3, r3, asl #3
  and r2, r2, #49152
  add r2, r2, r3
  rsb r4, r1, #256
  mov r3, r3, asl #1
  rsb r3, r3, #56
  cmp fp, r4
  add r9, r2, r9
  str r3, [sp, #4]
  and r0, r0, #7
  bls .L487
  cmp r0, #0
  moveq ip, r0
  bne .L488
.L100:
  rsb r3, ip, r4
  movs  r7, r3, lsr #3
  beq .L124
  ldr lr, .L516+12
  mov r5, r8
  mov r6, #0
  b .L126
.L490:
  ldr r0, [ip, #4]
  ldr ip, [ip, #0]
  and r1, r0, #255
  mov r1, r1, asl #1
  ldrh  r1, [r1, lr]
  mov r3, r0, lsr #8
  and r3, r3, #255
  strh  r1, [r5, #6]  @ movhi
  mov r3, r3, asl #1
  ldrh  r3, [r3, lr]
  mov r2, r0, lsr #16
  and r2, r2, #255
  strh  r3, [r5, #4]  @ movhi
  mov r2, r2, asl #1
  ldrh  r2, [r2, lr]
  mov r0, r0, lsr #24
  strh  r2, [r5, #2]  @ movhi
  mov r0, r0, asl #1
  ldrh  r0, [r0, lr]
  and r1, ip, #255
  strh  r0, [r5, #0]  @ movhi
  mov r1, r1, asl #1
  ldrh  r1, [r1, lr]
  mov r2, ip, lsr #8
  and r2, r2, #255
  strh  r1, [r5, #14] @ movhi
  mov r2, r2, asl #1
  ldrh  r2, [r2, lr]
  mov r3, ip, lsr #16
  and r3, r3, #255
  strh  r2, [r5, #12] @ movhi
  mov r3, r3, asl #1
  ldrh  r3, [r3, lr]
  mov ip, ip, lsr #24
  strh  r3, [r5, #10] @ movhi
  mov ip, ip, asl #1
  ldrh  ip, [ip, lr]
  add r6, r6, #1
  cmp r7, r6
  strh  ip, [r5, #8]  @ movhi
  add sl, sl, #2
  add r5, r5, #16
  beq .L489
.L126:
  ldrh  r2, [sl, #0]
  mov r3, r2, asl #22
  mov r3, r3, lsr #22
  tst r2, #2048
  add ip, r9, r3, asl #6
  ldrne r3, [sp, #4]
  addne ip, ip, r3
  tst r2, #1024
  bne .L490
  ldmia ip, {r0, ip}  @ phole ldm
  and r1, r0, #255
  mov r1, r1, asl #1
  ldrh  r1, [r1, lr]
  mov r3, r0, lsr #8
  and r3, r3, #255
  strh  r1, [r5, #0]  @ movhi
  mov r3, r3, asl #1
  ldrh  r3, [r3, lr]
  mov r2, r0, lsr #16
  and r2, r2, #255
  strh  r3, [r5, #2]  @ movhi
  mov r2, r2, asl #1
  ldrh  r2, [r2, lr]
  mov r0, r0, lsr #24
  strh  r2, [r5, #4]  @ movhi
  mov r0, r0, asl #1
  ldrh  r0, [r0, lr]
  and r1, ip, #255
  strh  r0, [r5, #6]  @ movhi
  mov r1, r1, asl #1
  ldrh  r1, [r1, lr]
  mov r2, ip, lsr #8
  and r2, r2, #255
  strh  r1, [r5, #8]  @ movhi
  mov r2, r2, asl #1
  ldrh  r2, [r2, lr]
  mov r3, ip, lsr #16
  and r3, r3, #255
  strh  r2, [r5, #10] @ movhi
  mov r3, r3, asl #1
  ldrh  r3, [r3, lr]
  mov ip, ip, lsr #24
  strh  r3, [r5, #12] @ movhi
  mov ip, ip, asl #1
  ldrh  ip, [ip, lr]
  add r6, r6, #1
  cmp r7, r6
  strh  ip, [r5, #14] @ movhi
  add sl, sl, #2
  add r5, r5, #16
  bne .L126
.L489:
  add r8, r8, r7, asl #4
.L124:
  rsb sl, r4, fp
  movs  r4, sl, lsr #3
  ldreq r3, [sp, #0]
  beq .L136
  ldr lr, .L516+12
  ldr r6, [sp, #0]
  mov r5, r8
  mov r7, #0
  b .L137
.L492:
  ldr r0, [ip, #4]
  ldr ip, [ip, #0]
  and r1, r0, #255
  mov r1, r1, asl #1
  ldrh  r1, [r1, lr]
  mov r3, r0, lsr #8
  and r3, r3, #255
  strh  r1, [r5, #6]  @ movhi
  mov r3, r3, asl #1
  ldrh  r3, [r3, lr]
  mov r2, r0, lsr #16
  and r2, r2, #255
  strh  r3, [r5, #4]  @ movhi
  mov r2, r2, asl #1
  ldrh  r2, [r2, lr]
  mov r0, r0, lsr #24
  strh  r2, [r5, #2]  @ movhi
  mov r0, r0, asl #1
  ldrh  r0, [r0, lr]
  and r1, ip, #255
  strh  r0, [r5, #0]  @ movhi
  mov r1, r1, asl #1
  ldrh  r1, [r1, lr]
  mov r2, ip, lsr #8
  and r2, r2, #255
  strh  r1, [r5, #14] @ movhi
  mov r2, r2, asl #1
  ldrh  r2, [r2, lr]
  mov r3, ip, lsr #16
  and r3, r3, #255
  strh  r2, [r5, #12] @ movhi
  mov r3, r3, asl #1
  ldrh  r3, [r3, lr]
  mov ip, ip, lsr #24
  strh  r3, [r5, #10] @ movhi
  mov ip, ip, asl #1
  ldrh  ip, [ip, lr]
  add r7, r7, #1
  cmp r4, r7
  strh  ip, [r5, #8]  @ movhi
  add r6, r6, #2
  add r5, r5, #16
  beq .L491
.L137:
  ldrh  r2, [r6, #0]
  mov r3, r2, asl #22
  mov r3, r3, lsr #22
  tst r2, #2048
  add ip, r9, r3, asl #6
  ldrne r3, [sp, #4]
  addne ip, ip, r3
  tst r2, #1024
  bne .L492
  ldmia ip, {r0, ip}  @ phole ldm
  and r1, r0, #255
  mov r1, r1, asl #1
  ldrh  r1, [r1, lr]
  mov r3, r0, lsr #8
  and r3, r3, #255
  strh  r1, [r5, #0]  @ movhi
  mov r3, r3, asl #1
  ldrh  r3, [r3, lr]
  mov r2, r0, lsr #16
  and r2, r2, #255
  strh  r3, [r5, #2]  @ movhi
  mov r2, r2, asl #1
  ldrh  r2, [r2, lr]
  mov r0, r0, lsr #24
  strh  r2, [r5, #4]  @ movhi
  mov r0, r0, asl #1
  ldrh  r0, [r0, lr]
  and r1, ip, #255
  strh  r0, [r5, #6]  @ movhi
  mov r1, r1, asl #1
  ldrh  r1, [r1, lr]
  mov r2, ip, lsr #8
  and r2, r2, #255
  strh  r1, [r5, #8]  @ movhi
  mov r2, r2, asl #1
  ldrh  r2, [r2, lr]
  mov r3, ip, lsr #16
  and r3, r3, #255
  strh  r2, [r5, #10] @ movhi
  mov r3, r3, asl #1
  ldrh  r3, [r3, lr]
  mov ip, ip, lsr #24
  strh  r3, [r5, #12] @ movhi
  mov ip, ip, asl #1
  ldrh  ip, [ip, lr]
  add r7, r7, #1
  cmp r4, r7
  strh  ip, [r5, #14] @ movhi
  add r6, r6, #2
  add r5, r5, #16
  bne .L137
.L491:
  ldr r2, [sp, #0]
  add r8, r8, r4, asl #4
  add r3, r2, r4, asl #1
.L136:
  ands  r5, sl, #7
  beq .L431
  ldrh  r4, [r3, #0]
  mov r3, r4, asl #22
  mov r3, r3, lsr #22
  tst r4, #2048
  add ip, r9, r3, asl #6
  ldrne r3, [sp, #4]
  addne ip, ip, r3
  tst r4, #1024
  beq .L147
  cmp r5, #3
  bhi .L493
  ldr r1, [ip, #4]
  ldr lr, .L516+12
.L152:
  mov r0, #0
.L153:
  mov r3, r1, lsr #24
  mov r3, r3, asl #1
  add r0, r0, #1
  ldrh  r3, [r3, lr]
  cmp r5, r0
  strh  r3, [r8], #2  @ movhi
  mov r1, r1, asl #8
  bhi .L153
.L431:
  add sp, sp, #8
  ldmfd sp!, {r4, r5, r6, r7, r8, r9, sl, fp, pc}
.L10:
  and r1, r0, #255
  and r3, r7, #7
  mov r2, r6, asl #12
  mov r3, r3, asl #2
  and r2, r2, #49152
  rsb r4, r1, #256
  add r2, r2, r3
  cmp fp, r4
  mov r3, r3, asl #1
  add ip, r2, r9
  rsb lr, r3, #28
  and r0, r0, #7
  bls .L494
  cmp r0, #0
  moveq r6, r0
  bne .L495
.L276:
  rsb r3, r6, r4
  movs  r9, r3, lsr #3
  beq .L296
  ldr r6, .L516+12
  mov r0, r8
  mov r7, #0
  b .L298
.L496:
  ldr r2, [r3, #0]
  cmp r2, #0
  beq .L329
  ands  r3, r2, #15
  orrne r3, r5, r3
  movne r3, r3, asl #1
  ldrneh  r3, [r3, r6]
  ldreqh  r3, [r6, #0]
  strneh  r3, [r0, #14] @ movhi
  streqh  r3, [r0, #14] @ movhi
  mov r3, r2, lsr #4
  ands  r3, r3, #15
  orrne r3, r5, r3
  movne r3, r3, asl #1
  ldrneh  r3, [r3, r6]
  ldreqh  r3, [r6, #0]
  strneh  r3, [r0, #12] @ movhi
  streqh  r3, [r0, #12] @ movhi
  mov r3, r2, lsr #8
  ands  r3, r3, #15
  orrne r3, r5, r3
  movne r3, r3, asl #1
  ldrneh  r3, [r3, r6]
  ldreqh  r3, [r6, #0]
  strneh  r3, [r0, #10] @ movhi
  streqh  r3, [r0, #10] @ movhi
  mov r3, r2, lsr #12
  ands  r3, r3, #15
  orrne r3, r5, r3
  movne r3, r3, asl #1
  ldrneh  r3, [r3, r6]
  ldreqh  r3, [r6, #0]
  strneh  r3, [r0, #8]  @ movhi
  streqh  r3, [r0, #8]  @ movhi
  mov r3, r2, lsr #16
  ands  r3, r3, #15
  orrne r3, r5, r3
  movne r3, r3, asl #1
  ldrneh  r3, [r3, r6]
  ldreqh  r3, [r6, #0]
  strneh  r3, [r0, #6]  @ movhi
  streqh  r3, [r0, #6]  @ movhi
  mov r3, r2, lsr #20
  ands  r3, r3, #15
  orrne r3, r5, r3
  movne r3, r3, asl #1
  ldrneh  r3, [r3, r6]
  ldreqh  r3, [r6, #0]
  strneh  r3, [r0, #4]  @ movhi
  streqh  r3, [r0, #4]  @ movhi
  mov r3, r2, lsr #24
  ands  r3, r3, #15
  orrne r3, r5, r3
  movne r3, r3, asl #1
  ldrneh  r3, [r3, r6]
  ldreqh  r3, [r6, #0]
  strneh  r3, [r0, #2]  @ movhi
  streqh  r3, [r0, #2]  @ movhi
  movs  r3, r2, lsr #28
  orrne r3, r5, r3
  movne r3, r3, asl #1
  ldrneh  r3, [r3, r6]
  ldreqh  r2, [r6, #0]
  strneh  r3, [r0, #0]  @ movhi
  streqh  r2, [r0, #0]  @ movhi
.L328:
  add r7, r7, #1
  cmp r9, r7
  add r0, r0, #16
  beq .L354
.L497:
  add sl, sl, #2
.L298:
  ldrh  r1, [sl, #0]
  mov r2, r1, asl #22
  mov r3, r1, lsr #12
  mov r2, r2, lsr #22
  tst r1, #2048
  mov r5, r3, asl #4
  add r3, ip, r2, asl #5
  addne r3, r3, lr
  tst r1, #1024
  bne .L496
  ldr r2, [r3, #0]
  cmp r2, #0
  beq .L329
  ands  r3, r2, #15
  orrne r3, r5, r3
  movne r3, r3, asl #1
  ldrneh  r3, [r3, r6]
  ldreqh  r3, [r6, #0]
  strneh  r3, [r0, #0]  @ movhi
  streqh  r3, [r0, #0]  @ movhi
  mov r3, r2, lsr #4
  ands  r3, r3, #15
  orrne r3, r5, r3
  movne r3, r3, asl #1
  ldrneh  r3, [r3, r6]
  ldreqh  r3, [r6, #0]
  strneh  r3, [r0, #2]  @ movhi
  streqh  r3, [r0, #2]  @ movhi
  mov r3, r2, lsr #8
  ands  r3, r3, #15
  orrne r3, r5, r3
  movne r3, r3, asl #1
  ldrneh  r3, [r3, r6]
  ldreqh  r3, [r6, #0]
  strneh  r3, [r0, #4]  @ movhi
  streqh  r3, [r0, #4]  @ movhi
  mov r3, r2, lsr #12
  ands  r3, r3, #15
  orrne r3, r5, r3
  movne r3, r3, asl #1
  ldrneh  r3, [r3, r6]
  ldreqh  r3, [r6, #0]
  strneh  r3, [r0, #6]  @ movhi
  streqh  r3, [r0, #6]  @ movhi
  mov r3, r2, lsr #16
  ands  r3, r3, #15
  orrne r3, r5, r3
  movne r3, r3, asl #1
  ldrneh  r3, [r3, r6]
  ldreqh  r3, [r6, #0]
  strneh  r3, [r0, #8]  @ movhi
  streqh  r3, [r0, #8]  @ movhi
  mov r3, r2, lsr #20
  ands  r3, r3, #15
  orrne r3, r5, r3
  movne r3, r3, asl #1
  ldrneh  r3, [r3, r6]
  ldreqh  r3, [r6, #0]
  strneh  r3, [r0, #10] @ movhi
  streqh  r3, [r0, #10] @ movhi
  mov r3, r2, lsr #24
  ands  r3, r3, #15
  orrne r3, r5, r3
  movne r3, r3, asl #1
  ldrneh  r3, [r3, r6]
  ldreqh  r3, [r6, #0]
  strneh  r3, [r0, #12] @ movhi
  streqh  r3, [r0, #12] @ movhi
  movs  r3, r2, lsr #28
  orrne r3, r5, r3
  movne r3, r3, asl #1
  ldrneh  r3, [r3, r6]
  ldreqh  r2, [r6, #0]
  add r7, r7, #1
  strneh  r3, [r0, #14] @ movhi
  streqh  r2, [r0, #14] @ movhi
  cmp r9, r7
  add r0, r0, #16
  bne .L497
.L354:
  add r8, r8, r9, asl #4
.L296:
  rsb r9, r4, fp
  movs  r4, r9, lsr #3
  ldreq r2, [sp, #0]
  beq .L358
  ldr r6, .L516+12
  ldr r7, [sp, #0]
  mov r0, r8
  mov sl, #0
  b .L359
.L499:
  ldr r2, [r3, #0]
  cmp r2, #0
  beq .L390
  ands  r3, r2, #15
  orrne r3, r5, r3
  movne r3, r3, asl #1
  ldrneh  r3, [r3, r6]
  ldreqh  r3, [r6, #0]
  strneh  r3, [r0, #14] @ movhi
  streqh  r3, [r0, #14] @ movhi
  mov r3, r2, lsr #4
  ands  r3, r3, #15
  orrne r3, r5, r3
  movne r3, r3, asl #1
  ldrneh  r3, [r3, r6]
  ldreqh  r3, [r6, #0]
  strneh  r3, [r0, #12] @ movhi
  streqh  r3, [r0, #12] @ movhi
  mov r3, r2, lsr #8
  ands  r3, r3, #15
  orrne r3, r5, r3
  movne r3, r3, asl #1
  ldrneh  r3, [r3, r6]
  ldreqh  r3, [r6, #0]
  strneh  r3, [r0, #10] @ movhi
  streqh  r3, [r0, #10] @ movhi
  mov r3, r2, lsr #12
  ands  r3, r3, #15
  orrne r3, r5, r3
  movne r3, r3, asl #1
  ldrneh  r3, [r3, r6]
  ldreqh  r3, [r6, #0]
  strneh  r3, [r0, #8]  @ movhi
  streqh  r3, [r0, #8]  @ movhi
  mov r3, r2, lsr #16
  ands  r3, r3, #15
  orrne r3, r5, r3
  movne r3, r3, asl #1
  ldrneh  r3, [r3, r6]
  ldreqh  r3, [r6, #0]
  strneh  r3, [r0, #6]  @ movhi
  streqh  r3, [r0, #6]  @ movhi
  mov r3, r2, lsr #20
  ands  r3, r3, #15
  orrne r3, r5, r3
  movne r3, r3, asl #1
  ldrneh  r3, [r3, r6]
  ldreqh  r3, [r6, #0]
  strneh  r3, [r0, #4]  @ movhi
  streqh  r3, [r0, #4]  @ movhi
  mov r3, r2, lsr #24
  ands  r3, r3, #15
  orrne r3, r5, r3
  movne r3, r3, asl #1
  ldrneh  r3, [r3, r6]
  ldreqh  r3, [r6, #0]
  strneh  r3, [r0, #2]  @ movhi
  streqh  r3, [r0, #2]  @ movhi
  movs  r3, r2, lsr #28
  orrne r3, r5, r3
  movne r3, r3, asl #1
  ldrneh  r3, [r3, r6]
  ldreqh  r2, [r6, #0]
  strneh  r3, [r0, #0]  @ movhi
  streqh  r2, [r0, #0]  @ movhi
.L389:
  add sl, sl, #1
  cmp r4, sl
  add r0, r0, #16
  add r7, r7, #2
  beq .L498
.L359:
  ldrh  r1, [r7, #0]
  mov r2, r1, asl #22
  mov r3, r1, lsr #12
  mov r2, r2, lsr #22
  tst r1, #2048
  mov r5, r3, asl #4
  add r3, ip, r2, asl #5
  addne r3, r3, lr
  tst r1, #1024
  bne .L499
  ldr r2, [r3, #0]
  cmp r2, #0
  beq .L390
  ands  r3, r2, #15
  orrne r3, r5, r3
  movne r3, r3, asl #1
  ldrneh  r3, [r3, r6]
  ldreqh  r3, [r6, #0]
  strneh  r3, [r0, #0]  @ movhi
  streqh  r3, [r0, #0]  @ movhi
  mov r3, r2, lsr #4
  ands  r3, r3, #15
  orrne r3, r5, r3
  movne r3, r3, asl #1
  ldrneh  r3, [r3, r6]
  ldreqh  r3, [r6, #0]
  strneh  r3, [r0, #2]  @ movhi
  streqh  r3, [r0, #2]  @ movhi
  mov r3, r2, lsr #8
  ands  r3, r3, #15
  orrne r3, r5, r3
  movne r3, r3, asl #1
  ldrneh  r3, [r3, r6]
  ldreqh  r3, [r6, #0]
  strneh  r3, [r0, #4]  @ movhi
  streqh  r3, [r0, #4]  @ movhi
  mov r3, r2, lsr #12
  ands  r3, r3, #15
  orrne r3, r5, r3
  movne r3, r3, asl #1
  ldrneh  r3, [r3, r6]
  ldreqh  r3, [r6, #0]
  strneh  r3, [r0, #6]  @ movhi
  streqh  r3, [r0, #6]  @ movhi
  mov r3, r2, lsr #16
  ands  r3, r3, #15
  orrne r3, r5, r3
  movne r3, r3, asl #1
  ldrneh  r3, [r3, r6]
  ldreqh  r3, [r6, #0]
  strneh  r3, [r0, #8]  @ movhi
  streqh  r3, [r0, #8]  @ movhi
  mov r3, r2, lsr #20
  ands  r3, r3, #15
  orrne r3, r5, r3
  movne r3, r3, asl #1
  ldrneh  r3, [r3, r6]
  ldreqh  r3, [r6, #0]
  strneh  r3, [r0, #10] @ movhi
  streqh  r3, [r0, #10] @ movhi
  mov r3, r2, lsr #24
  ands  r3, r3, #15
  orrne r3, r5, r3
  movne r3, r3, asl #1
  ldrneh  r3, [r3, r6]
  ldreqh  r3, [r6, #0]
  strneh  r3, [r0, #12] @ movhi
  streqh  r3, [r0, #12] @ movhi
  movs  r3, r2, lsr #28
  orrne r3, r5, r3
  movne r3, r3, asl #1
  ldrneh  r3, [r3, r6]
  ldreqh  r2, [r6, #0]
  add sl, sl, #1
  strneh  r3, [r0, #14] @ movhi
  streqh  r2, [r0, #14] @ movhi
  cmp r4, sl
  add r0, r0, #16
  add r7, r7, #2
  bne .L359
.L498:
  ldr r3, [sp, #0]
  add r8, r8, r4, asl #4
  add r2, r3, r4, asl #1
.L358:
  ands  r5, r9, #7
  beq .L431
  ldrh  r4, [r2, #0]
  mov r3, r4, asl #22
  mov r3, r3, lsr #22
  tst r4, #2048
  add r3, ip, r3, asl #5
  mov r2, r4, lsr #12
  addne r3, r3, lr
  tst r4, #1024
  mov r0, r2, asl #4
  beq .L419
  ldr r2, [r3, #0]
  ldr ip, .L516+12
  mov r1, #0
.L421:
  movs  r3, r2, lsr #28
  orr r3, r0, r3
  mov r3, r3, asl #1
  ldrneh  r3, [r3, ip]
  ldreqh  r3, [ip, #0]
  add r1, r1, #1
  strneh  r3, [r8, #0]  @ movhi
  streqh  r3, [r8, #0]  @ movhi
  cmp r5, r1
  mov r2, r2, asl #4
  add r8, r8, #2
  bne .L421
  b .L431
.L494:
  cmp r0, #0
  bne .L500
.L161:
  movs  r9, fp, lsr #3
  beq .L200
  ldr r5, .L516+12
  mov r0, r8
  mov r6, sl
  mov r7, #0
  b .L202
.L502:
  ldr r2, [r3, #0]
  cmp r2, #0
  beq .L233
  ands  r3, r2, #15
  orrne r3, r4, r3
  movne r3, r3, asl #1
  ldrneh  r3, [r3, r5]
  ldreqh  r3, [r5, #0]
  strneh  r3, [r0, #14] @ movhi
  streqh  r3, [r0, #14] @ movhi
  mov r3, r2, lsr #4
  ands  r3, r3, #15
  orrne r3, r4, r3
  movne r3, r3, asl #1
  ldrneh  r3, [r3, r5]
  ldreqh  r3, [r5, #0]
  strneh  r3, [r0, #12] @ movhi
  streqh  r3, [r0, #12] @ movhi
  mov r3, r2, lsr #8
  ands  r3, r3, #15
  orrne r3, r4, r3
  movne r3, r3, asl #1
  ldrneh  r3, [r3, r5]
  ldreqh  r3, [r5, #0]
  strneh  r3, [r0, #10] @ movhi
  streqh  r3, [r0, #10] @ movhi
  mov r3, r2, lsr #12
  ands  r3, r3, #15
  orrne r3, r4, r3
  movne r3, r3, asl #1
  ldrneh  r3, [r3, r5]
  ldreqh  r3, [r5, #0]
  strneh  r3, [r0, #8]  @ movhi
  streqh  r3, [r0, #8]  @ movhi
  mov r3, r2, lsr #16
  ands  r3, r3, #15
  orrne r3, r4, r3
  movne r3, r3, asl #1
  ldrneh  r3, [r3, r5]
  ldreqh  r3, [r5, #0]
  strneh  r3, [r0, #6]  @ movhi
  streqh  r3, [r0, #6]  @ movhi
  mov r3, r2, lsr #20
  ands  r3, r3, #15
  orrne r3, r4, r3
  movne r3, r3, asl #1
  ldrneh  r3, [r3, r5]
  ldreqh  r3, [r5, #0]
  strneh  r3, [r0, #4]  @ movhi
  streqh  r3, [r0, #4]  @ movhi
  mov r3, r2, lsr #24
  ands  r3, r3, #15
  orrne r3, r4, r3
  movne r3, r3, asl #1
  ldrneh  r3, [r3, r5]
  ldreqh  r3, [r5, #0]
  strneh  r3, [r0, #2]  @ movhi
  streqh  r3, [r0, #2]  @ movhi
  movs  r3, r2, lsr #28
  orrne r3, r4, r3
  movne r3, r3, asl #1
  ldrneh  r3, [r3, r5]
  ldreqh  r2, [r5, #0]
  strneh  r3, [r0, #0]  @ movhi
  streqh  r2, [r0, #0]  @ movhi
.L232:
  add r7, r7, #1
  cmp r9, r7
  add r0, r0, #16
  add r6, r6, #2
  beq .L501
.L202:
  ldrh  r1, [r6, #0]
  mov r2, r1, asl #22
  mov r3, r1, lsr #12
  mov r2, r2, lsr #22
  tst r1, #2048
  mov r4, r3, asl #4
  add r3, ip, r2, asl #5
  addne r3, r3, lr
  tst r1, #1024
  bne .L502
  ldr r2, [r3, #0]
  cmp r2, #0
  beq .L233
  ands  r3, r2, #15
  orrne r3, r4, r3
  movne r3, r3, asl #1
  ldrneh  r3, [r3, r5]
  ldreqh  r3, [r5, #0]
  strneh  r3, [r0, #0]  @ movhi
  streqh  r3, [r0, #0]  @ movhi
  mov r3, r2, lsr #4
  ands  r3, r3, #15
  orrne r3, r4, r3
  movne r3, r3, asl #1
  ldrneh  r3, [r3, r5]
  ldreqh  r3, [r5, #0]
  strneh  r3, [r0, #2]  @ movhi
  streqh  r3, [r0, #2]  @ movhi
  mov r3, r2, lsr #8
  ands  r3, r3, #15
  orrne r3, r4, r3
  movne r3, r3, asl #1
  ldrneh  r3, [r3, r5]
  ldreqh  r3, [r5, #0]
  strneh  r3, [r0, #4]  @ movhi
  streqh  r3, [r0, #4]  @ movhi
  mov r3, r2, lsr #12
  ands  r3, r3, #15
  orrne r3, r4, r3
  movne r3, r3, asl #1
  ldrneh  r3, [r3, r5]
  ldreqh  r3, [r5, #0]
  strneh  r3, [r0, #6]  @ movhi
  streqh  r3, [r0, #6]  @ movhi
  mov r3, r2, lsr #16
  ands  r3, r3, #15
  orrne r3, r4, r3
  movne r3, r3, asl #1
  ldrneh  r3, [r3, r5]
  ldreqh  r3, [r5, #0]
  strneh  r3, [r0, #8]  @ movhi
  streqh  r3, [r0, #8]  @ movhi
  mov r3, r2, lsr #20
  ands  r3, r3, #15
  orrne r3, r4, r3
  movne r3, r3, asl #1
  ldrneh  r3, [r3, r5]
  ldreqh  r3, [r5, #0]
  strneh  r3, [r0, #10] @ movhi
  streqh  r3, [r0, #10] @ movhi
  mov r3, r2, lsr #24
  ands  r3, r3, #15
  orrne r3, r4, r3
  movne r3, r3, asl #1
  ldrneh  r3, [r3, r5]
  ldreqh  r3, [r5, #0]
  strneh  r3, [r0, #12] @ movhi
  streqh  r3, [r0, #12] @ movhi
  movs  r3, r2, lsr #28
  orrne r3, r4, r3
  movne r3, r3, asl #1
  ldrneh  r3, [r3, r5]
  ldreqh  r2, [r5, #0]
  add r7, r7, #1
  strneh  r3, [r0, #14] @ movhi
  streqh  r2, [r0, #14] @ movhi
  cmp r9, r7
  add r0, r0, #16
  add r6, r6, #2
  bne .L202
.L501:
  add r8, r8, r9, asl #4
  add sl, sl, r9, asl #1
.L200:
  ands  r4, fp, #7
  beq .L431
  ldrh  r1, [sl, #0]
  mov r3, r1, asl #22
  mov r3, r3, lsr #22
  tst r1, #2048
  add r3, ip, r3, asl #5
  mov r2, r1, lsr #12
  addne r3, r3, lr
  tst r1, #1024
  mov r0, r2, asl #4
  beq .L262
  ldr r2, [r3, #0]
  ldr ip, .L516+12
  mov r1, #0
.L264:
  movs  r3, r2, lsr #28
  orr r3, r0, r3
  mov r3, r3, asl #1
  ldrneh  r3, [r3, ip]
  ldreqh  r3, [ip, #0]
  add r1, r1, #1
  strneh  r3, [r8, #0]  @ movhi
  streqh  r3, [r8, #0]  @ movhi
  cmp r4, r1
  mov r2, r2, asl #4
  add r8, r8, #2
  bne .L264
  b .L431
.L487:
  cmp r0, #0
  bne .L503
.L14:
  movs  lr, fp, lsr #3
  beq .L74
  ldr r5, .L516+12
  mov r4, r8
  mov r6, sl
  mov r7, #0
  b .L76
.L505:
  ldr r0, [ip, #4]
  ldr ip, [ip, #0]
  and r1, r0, #255
  mov r1, r1, asl #1
  ldrh  r1, [r1, r5]
  mov r3, r0, lsr #8
  and r3, r3, #255
  strh  r1, [r4, #6]  @ movhi
  mov r3, r3, asl #1
  ldrh  r3, [r3, r5]
  mov r2, r0, lsr #16
  and r2, r2, #255
  strh  r3, [r4, #4]  @ movhi
  mov r2, r2, asl #1
  ldrh  r2, [r2, r5]
  mov r0, r0, lsr #24
  strh  r2, [r4, #2]  @ movhi
  mov r0, r0, asl #1
  ldrh  r0, [r0, r5]
  and r1, ip, #255
  strh  r0, [r4, #0]  @ movhi
  mov r1, r1, asl #1
  ldrh  r1, [r1, r5]
  mov r2, ip, lsr #8
  and r2, r2, #255
  strh  r1, [r4, #14] @ movhi
  mov r2, r2, asl #1
  ldrh  r2, [r2, r5]
  mov r3, ip, lsr #16
  and r3, r3, #255
  strh  r2, [r4, #12] @ movhi
  mov r3, r3, asl #1
  ldrh  r3, [r3, r5]
  mov ip, ip, lsr #24
  strh  r3, [r4, #10] @ movhi
  mov ip, ip, asl #1
  ldrh  ip, [ip, r5]
  add r7, r7, #1
  cmp lr, r7
  strh  ip, [r4, #8]  @ movhi
  add r6, r6, #2
  add r4, r4, #16
  beq .L504
.L76:
  ldrh  r2, [r6, #0]
  mov r3, r2, asl #22
  mov r3, r3, lsr #22
  tst r2, #2048
  add ip, r9, r3, asl #6
  ldrne r3, [sp, #4]
  addne ip, ip, r3
  tst r2, #1024
  bne .L505
  ldmia ip, {r0, ip}  @ phole ldm
  and r1, r0, #255
  mov r1, r1, asl #1
  ldrh  r1, [r1, r5]
  mov r3, r0, lsr #8
  and r3, r3, #255
  strh  r1, [r4, #0]  @ movhi
  mov r3, r3, asl #1
  ldrh  r3, [r3, r5]
  mov r2, r0, lsr #16
  and r2, r2, #255
  strh  r3, [r4, #2]  @ movhi
  mov r2, r2, asl #1
  ldrh  r2, [r2, r5]
  mov r0, r0, lsr #24
  strh  r2, [r4, #4]  @ movhi
  mov r0, r0, asl #1
  ldrh  r0, [r0, r5]
  and r1, ip, #255
  strh  r0, [r4, #6]  @ movhi
  mov r1, r1, asl #1
  ldrh  r1, [r1, r5]
  mov r2, ip, lsr #8
  and r2, r2, #255
  strh  r1, [r4, #8]  @ movhi
  mov r2, r2, asl #1
  ldrh  r2, [r2, r5]
  mov r3, ip, lsr #16
  and r3, r3, #255
  strh  r2, [r4, #10] @ movhi
  mov r3, r3, asl #1
  ldrh  r3, [r3, r5]
  mov ip, ip, lsr #24
  strh  r3, [r4, #12] @ movhi
  mov ip, ip, asl #1
  ldrh  ip, [ip, r5]
  add r7, r7, #1
  cmp lr, r7
  strh  ip, [r4, #14] @ movhi
  add r6, r6, #2
  add r4, r4, #16
  bne .L76
.L504:
  add r8, r8, lr, asl #4
  add sl, sl, lr, asl #1
.L74:
  ands  r4, fp, #7
  beq .L431
  ldrh  r2, [sl, #0]
  mov r3, r2, asl #22
  mov r3, r3, lsr #22
  tst r2, #2048
  add ip, r9, r3, asl #6
  ldrne r3, [sp, #4]
  addne ip, ip, r3
  tst r2, #1024
  beq .L86
  cmp r4, #3
  bhi .L506
  ldr r1, [ip, #4]
  ldr lr, .L516+12
.L91:
  mov r0, #0
.L92:
  mov r3, r1, lsr #24
  mov r3, r3, asl #1
  add r0, r0, #1
  ldrh  r3, [r3, lr]
  cmp r4, r0
  strh  r3, [r8], #2  @ movhi
  mov r1, r1, asl #8
  bhi .L92
  b .L431
.L329:
  ldrh  r3, [r6, #0]
  strh  r3, [r0, #14] @ movhi
  strh  r3, [r0, #0]  @ movhi
  strh  r3, [r0, #2]  @ movhi
  strh  r3, [r0, #4]  @ movhi
  strh  r3, [r0, #6]  @ movhi
  strh  r3, [r0, #8]  @ movhi
  strh  r3, [r0, #10] @ movhi
  strh  r3, [r0, #12] @ movhi
  b .L328
.L390:
  ldrh  r3, [r6, #0]
  strh  r3, [r0, #14] @ movhi
  strh  r3, [r0, #0]  @ movhi
  strh  r3, [r0, #2]  @ movhi
  strh  r3, [r0, #4]  @ movhi
  strh  r3, [r0, #6]  @ movhi
  strh  r3, [r0, #8]  @ movhi
  strh  r3, [r0, #10] @ movhi
  strh  r3, [r0, #12] @ movhi
  b .L389
.L517:
  .align  2
.L516:
  .word io_registers
  .word map_widths
  .word vram
  .word palette_ram_converted
.L500:
  rsb r4, r0, #8
  cmp fp, r4
  bcs .L163
  ldrh  r1, [sl, #0]
  mov r3, r1, asl #22
  mov r3, r3, lsr #22
  tst r1, #2048
  add ip, ip, r3, asl #5
  mov r2, r1, lsr #12
  addne ip, ip, lr
  tst r1, #1024
  mov r4, r2, asl #4
  bne .L507
  cmp fp, #0
  ldr r2, [ip, #0]
  beq .L431
  mov r3, r0, asl #2
  mov r0, r2, lsr r3
  ldr r2, .L516+12
  mov r1, #0
.L176:
  ands  r3, r0, #15
  orr r3, r4, r3
  mov r3, r3, asl #1
  ldrneh  r3, [r3, r2]
  ldreqh  r3, [r2, #0]
  add r1, r1, #1
  strneh  r3, [r8, #0]  @ movhi
  streqh  r3, [r8, #0]  @ movhi
  cmp fp, r1
  mov r0, r0, lsr #4
  add r8, r8, #2
  bne .L176
  b .L431
.L495:
  ldrh  r5, [sl, #0]
  rsb r6, r0, #8
  mov r2, r5, asl #22
  mov r3, r5, lsr #12
  mov r2, r2, lsr #22
  tst r5, #2048
  mov r7, r3, asl #4
  add r3, ip, r2, asl #5
  addne r3, r3, lr
  tst r5, #1024
  beq .L279
  cmp r6, #0
  ldr r2, [r3, #0]
  beq .L281
  mov r3, r0, asl #2
  ldr r5, .L516+12
  mov r0, r2, asl r3
  mov r1, #0
  mov r2, r8
.L283:
  movs  r3, r0, lsr #28
  orr r3, r7, r3
  mov r3, r3, asl #1
  ldrneh  r3, [r3, r5]
  ldreqh  r3, [r5, #0]
  add r1, r1, #1
  strneh  r3, [r2, #0]  @ movhi
  streqh  r3, [r2, #0]  @ movhi
  cmp r6, r1
  mov r0, r0, asl #4
  add r2, r2, #2
  bne .L283
  add r8, r8, r6, asl #1
.L281:
  add sl, sl, #2
  b .L276
.L488:
  ldrh  r2, [sl, #0]
  rsb ip, r0, #8
  mov r3, r2, asl #22
  mov r3, r3, lsr #22
  tst r2, #2048
  add r5, r9, r3, asl #6
  ldrne r3, [sp, #4]
  addne r5, r5, r3
  ands  r1, r2, #1024
  beq .L103
  cmp r0, #3
  bhi .L508
  subs  lr, ip, #4
  ldr r2, [r5, #4]
  ldreq r6, .L516+12
  beq .L111
  mov r3, r0, asl #3
  sub r3, r3, #32
  ldr r6, .L516+12
  mov r0, r2, asl r3
  mov r1, r8
  mov r2, #0
.L113:
  mov r3, r0, lsr #24
  mov r3, r3, asl #1
  add r2, r2, #1
  ldrh  r3, [r3, r6]
  cmp lr, r2
  strh  r3, [r1], #2  @ movhi
  mov r0, r0, asl #8
  bne .L113
  add r3, r8, ip, asl #1
  sub r8, r3, #8
.L111:
  ldr r3, [r5, #0]
  mov ip, lr
  and r0, r3, #255
  mov r0, r0, asl #1
  ldrh  r0, [r0, r6]
  mov r2, r3, lsr #8
  and r2, r2, #255
  strh  r0, [r8, #6]  @ movhi
  mov r2, r2, asl #1
  ldrh  r2, [r2, r6]
  mov r1, r3, lsr #16
  and r1, r1, #255
  strh  r2, [r8, #4]  @ movhi
  mov r1, r1, asl #1
  ldrh  r1, [r1, r6]
  mov r3, r3, lsr #24
  strh  r1, [r8, #2]  @ movhi
  mov r3, r3, asl #1
  ldrh  r3, [r3, r6]
  strh  r3, [r8], #8  @ movhi
.L107:
  add sl, sl, #2
  b .L100
.L503:
  rsb ip, r0, #8
  cmp fp, ip
  bcs .L16
  ldrh  r2, [sl, #0]
  mov r3, r2, asl #22
  mov r3, r3, lsr #22
  tst r2, #2048
  add ip, r9, r3, asl #6
  ldrne r3, [sp, #4]
  addne ip, ip, r3
  ands  r4, r2, #1024
  bne .L509
  cmp r0, #3
  bls .L37
  cmp fp, #0
  ldr r2, [ip, #4]
  beq .L431
  mov r3, r0, asl #3
  sub r3, r3, #32
  ldr r1, .L516+12
  mov r0, r2, lsr r3
  mov r2, r4
.L40:
  and r3, r0, #255
  mov r3, r3, asl #1
  add r2, r2, #1
  ldrh  r3, [r3, r1]
  cmp fp, r2
  strh  r3, [r8], #2  @ movhi
  mov r0, r0, lsr #8
  bne .L40
  b .L431
.L233:
  ldrh  r3, [r5, #0]
  strh  r3, [r0, #14] @ movhi
  strh  r3, [r0, #0]  @ movhi
  strh  r3, [r0, #2]  @ movhi
  strh  r3, [r0, #4]  @ movhi
  strh  r3, [r0, #6]  @ movhi
  strh  r3, [r0, #8]  @ movhi
  strh  r3, [r0, #10] @ movhi
  strh  r3, [r0, #12] @ movhi
  b .L232
.L147:
  cmp r5, #3
  bhi .L510
  ldr r1, [ip, #0]
  ldr lr, .L516+12
.L157:
  mov r0, #0
.L158:
  and r3, r1, #255
  mov r3, r3, asl #1
  add r0, r0, #1
  ldrh  r3, [r3, lr]
  cmp r5, r0
  strh  r3, [r8], #2  @ movhi
  mov r1, r1, lsr #8
  bhi .L158
  b .L431
.L419:
  ldr r2, [r3, #0]
  ldr ip, .L516+12
  mov r1, #0
.L426:
  ands  r3, r2, #15
  orr r3, r0, r3
  mov r3, r3, asl #1
  ldrneh  r3, [r3, ip]
  ldreqh  r3, [ip, #0]
  add r1, r1, #1
  strneh  r3, [r8, #0]  @ movhi
  streqh  r3, [r8, #0]  @ movhi
  cmp r5, r1
  mov r2, r2, lsr #4
  add r8, r8, #2
  bne .L426
  b .L431
.L86:
  cmp r4, #3
  bhi .L511
  ldr r1, [ip, #0]
  ldr lr, .L516+12
.L96:
  mov r0, #0
.L97:
  and r3, r1, #255
  mov r3, r3, asl #1
  add r0, r0, #1
  ldrh  r3, [r3, lr]
  cmp r4, r0
  strh  r3, [r8], #2  @ movhi
  mov r1, r1, lsr #8
  bhi .L97
  b .L431
.L262:
  ldr r2, [r3, #0]
  ldr ip, .L516+12
  mov r1, #0
.L269:
  ands  r3, r2, #15
  orr r3, r0, r3
  mov r3, r3, asl #1
  ldrneh  r3, [r3, ip]
  ldreqh  r3, [ip, #0]
  add r1, r1, #1
  strneh  r3, [r8, #0]  @ movhi
  streqh  r3, [r8, #0]  @ movhi
  cmp r4, r1
  mov r2, r2, lsr #4
  add r8, r8, #2
  bne .L269
  b .L431
.L279:
  cmp r6, #0
  ldr r2, [r3, #0]
  beq .L281
  mov r3, r0, asl #2
  ldr r5, .L516+12
  mov r0, r2, lsr r3
  mov r1, #0
  mov r2, r8
.L290:
  ands  r3, r0, #15
  orr r3, r7, r3
  mov r3, r3, asl #1
  ldrneh  r3, [r3, r5]
  ldreqh  r3, [r5, #0]
  add r1, r1, #1
  strneh  r3, [r2, #0]  @ movhi
  streqh  r3, [r2, #0]  @ movhi
  cmp r6, r1
  mov r0, r0, lsr #4
  add r2, r2, #2
  bne .L290
  add r8, r8, r6, asl #1
  b .L281
.L163:
  ldrh  r1, [sl, #0]
  mov r2, r1, asl #22
  mov r3, r1, lsr #12
  mov r2, r2, lsr #22
  tst r1, #2048
  mov r5, r3, asl #4
  add r3, ip, r2, asl #5
  addne r3, r3, lr
  tst r1, #1024
  bne .L512
  cmp r4, #0
  ldr r2, [r3, #0]
  beq .L185
  mov r3, r0, asl #2
  ldr r6, .L516+12
  mov r0, r2, lsr r3
  mov r1, #0
  mov r2, r8
.L194:
  ands  r3, r0, #15
  orr r3, r5, r3
  mov r3, r3, asl #1
  ldrneh  r3, [r3, r6]
  ldreqh  r3, [r6, #0]
  add r1, r1, #1
  strneh  r3, [r2, #0]  @ movhi
  streqh  r3, [r2, #0]  @ movhi
  cmp r4, r1
  mov r0, r0, lsr #4
  add r2, r2, #2
  bne .L194
.L484:
  add r8, r8, r4, asl #1
.L185:
  rsb fp, r4, fp
  add sl, sl, #2
  b .L161
.L103:
  cmp r0, #3
  bhi .L513
  subs  lr, ip, #4
  ldr r2, [r5, #0]
  ldreq r6, .L516+12
  beq .L120
  mov r3, r0, asl #3
  ldr r6, .L516+12
  mov r0, r2, lsr r3
  mov r2, r1
  mov r1, r8
.L122:
  and r3, r0, #255
  mov r3, r3, asl #1
  add r2, r2, #1
  ldrh  r3, [r3, r6]
  cmp lr, r2
  strh  r3, [r1], #2  @ movhi
  mov r0, r0, lsr #8
  bne .L122
  add r3, r8, ip, asl #1
  sub r8, r3, #8
.L120:
  ldr r3, [r5, #4]
  mov ip, lr
  and r0, r3, #255
  mov r0, r0, asl #1
  ldrh  r0, [r0, r6]
  mov r2, r3, lsr #8
  and r2, r2, #255
  strh  r0, [r8, #0]  @ movhi
  mov r2, r2, asl #1
  ldrh  r2, [r2, r6]
  mov r1, r3, lsr #16
  and r1, r1, #255
  strh  r2, [r8, #2]  @ movhi
  mov r1, r1, asl #1
  ldrh  r1, [r1, r6]
  mov r3, r3, lsr #24
  strh  r1, [r8, #4]  @ movhi
  mov r3, r3, asl #1
  ldrh  r3, [r3, r6]
  add sl, sl, #2
  strh  r3, [r8, #6]  @ movhi
  add r8, r8, #8
  b .L100
.L16:
  ldrh  r2, [sl, #0]
  mov r3, r2, asl #22
  mov r3, r3, lsr #22
  tst r2, #2048
  add lr, r9, r3, asl #6
  ldrne r3, [sp, #4]
  addne lr, lr, r3
  ands  r1, r2, #1024
  bne .L514
  cmp r0, #3
  bls .L65
  cmp ip, #0
  ldr r2, [lr, #4]
  beq .L57
  mov r3, r0, asl #3
  sub r3, r3, #32
  ldr lr, .L516+12
  mov r0, r2, lsr r3
  mov r2, r1
  mov r1, r8
.L68:
  and r3, r0, #255
  mov r3, r3, asl #1
  add r2, r2, #1
  ldrh  r3, [r3, lr]
  cmp ip, r2
  strh  r3, [r1], #2  @ movhi
  mov r0, r0, lsr #8
  bne .L68
.L482:
  add r8, r8, ip, asl #1
.L57:
  rsb fp, ip, fp
  add sl, sl, #2
  b .L14
.L510:
  ldr r1, [ip, #0]
  ldr lr, .L516+12
  and r0, r1, #255
  mov r0, r0, asl #1
  ldrh  r0, [r0, lr]
  mov r3, r1, lsr #8
  and r3, r3, #255
  strh  r0, [r8, #0]  @ movhi
  mov r3, r3, asl #1
  ldrh  r3, [r3, lr]
  mov r2, r1, lsr #16
  and r2, r2, #255
  strh  r3, [r8, #2]  @ movhi
  mov r2, r2, asl #1
  ldrh  r2, [r2, lr]
  mov r1, r1, lsr #24
  strh  r2, [r8, #4]  @ movhi
  mov r1, r1, asl #1
  ldrh  r1, [r1, lr]
  subs  r5, r5, #4
  strh  r1, [r8, #6]  @ movhi
  ldr r1, [ip, #4]
  addne r8, r8, #8
  bne .L157
  b .L431
.L493:
  ldr r1, [ip, #4]
  ldr lr, .L516+12
  and r0, r1, #255
  mov r0, r0, asl #1
  ldrh  r0, [r0, lr]
  mov r3, r1, lsr #8
  and r3, r3, #255
  strh  r0, [r8, #6]  @ movhi
  mov r3, r3, asl #1
  ldrh  r3, [r3, lr]
  mov r2, r1, lsr #16
  and r2, r2, #255
  strh  r3, [r8, #4]  @ movhi
  mov r2, r2, asl #1
  ldrh  r2, [r2, lr]
  mov r1, r1, lsr #24
  strh  r2, [r8, #2]  @ movhi
  mov r1, r1, asl #1
  ldrh  r1, [r1, lr]
  subs  r5, r5, #4
  strh  r1, [r8, #0]  @ movhi
  ldr r1, [ip, #0]
  addne r8, r8, #8
  bne .L152
  b .L431
.L506:
  ldr r1, [ip, #4]
  ldr lr, .L516+12
  and r0, r1, #255
  mov r0, r0, asl #1
  ldrh  r0, [r0, lr]
  mov r3, r1, lsr #8
  and r3, r3, #255
  strh  r0, [r8, #6]  @ movhi
  mov r3, r3, asl #1
  ldrh  r3, [r3, lr]
  mov r2, r1, lsr #16
  and r2, r2, #255
  strh  r3, [r8, #4]  @ movhi
  mov r2, r2, asl #1
  ldrh  r2, [r2, lr]
  mov r1, r1, lsr #24
  strh  r2, [r8, #2]  @ movhi
  mov r1, r1, asl #1
  ldrh  r1, [r1, lr]
  subs  r4, r4, #4
  strh  r1, [r8, #0]  @ movhi
  ldr r1, [ip, #0]
  addne r8, r8, #8
  bne .L91
  b .L431
.L511:
  ldr r1, [ip, #0]
  ldr lr, .L516+12
  and r0, r1, #255
  mov r0, r0, asl #1
  ldrh  r0, [r0, lr]
  mov r3, r1, lsr #8
  and r3, r3, #255
  strh  r0, [r8, #0]  @ movhi
  mov r3, r3, asl #1
  ldrh  r3, [r3, lr]
  mov r2, r1, lsr #16
  and r2, r2, #255
  strh  r3, [r8, #2]  @ movhi
  mov r2, r2, asl #1
  ldrh  r2, [r2, lr]
  mov r1, r1, lsr #24
  strh  r2, [r8, #4]  @ movhi
  mov r1, r1, asl #1
  ldrh  r1, [r1, lr]
  subs  r4, r4, #4
  strh  r1, [r8, #6]  @ movhi
  ldr r1, [ip, #4]
  addne r8, r8, #8
  bne .L96
  b .L431
.L509:
  cmp r0, #3
  bls .L22
  cmp fp, #0
  ldr r2, [ip, #0]
  beq .L431
  mov r3, r0, asl #3
  sub r3, r3, #32
  ldr r1, .L516+12
  mov r0, r2, asl r3
  mov r2, #0
.L26:
  mov r3, r0, lsr #24
  mov r3, r3, asl #1
  add r2, r2, #1
  ldrh  r3, [r3, r1]
  cmp fp, r2
  strh  r3, [r8], #2  @ movhi
  mov r0, r0, asl #8
  bne .L26
  b .L431
.L508:
  cmp ip, #0
  ldr r2, [r5, #0]
  beq .L107
  mov r3, r0, asl #3
  sub r3, r3, #32
  ldr lr, .L516+12
  mov r0, r2, asl r3
  mov r1, r8
  mov r2, #0
.L109:
  mov r3, r0, lsr #24
  mov r3, r3, asl #1
  add r2, r2, #1
  ldrh  r3, [r3, lr]
  cmp ip, r2
  strh  r3, [r1], #2  @ movhi
  mov r0, r0, asl #8
  bne .L109
  add r8, r8, ip, asl #1
.L515:
  add sl, sl, #2
  b .L100
.L507:
  cmp fp, #0
  ldr r2, [ip, #0]
  beq .L431
  mov r3, r0, asl #2
  mov r0, r2, asl r3
  ldr r2, .L516+12
  mov r1, r5
.L170:
  movs  r3, r0, lsr #28
  orr r3, r4, r3
  mov r3, r3, asl #1
  ldrneh  r3, [r3, r2]
  ldreqh  r3, [r2, #0]
  add r1, r1, #1
  strneh  r3, [r8, #0]  @ movhi
  streqh  r3, [r8, #0]  @ movhi
  cmp fp, r1
  mov r0, r0, asl #4
  add r8, r8, #2
  bne .L170
  b .L431
.L514:
  cmp r0, #3
  bls .L55
  cmp ip, #0
  ldr r2, [lr, #0]
  beq .L57
  mov r3, r0, asl #3
  sub r3, r3, #32
  ldr lr, .L516+12
  mov r0, r2, asl r3
  mov r1, r8
  mov r2, #0
.L59:
  mov r3, r0, lsr #24
  mov r3, r3, asl #1
  add r2, r2, #1
  ldrh  r3, [r3, lr]
  cmp ip, r2
  strh  r3, [r1], #2  @ movhi
  mov r0, r0, asl #8
  bne .L59
  b .L482
.L513:
  cmp ip, #0
  ldr r2, [r5, #4]
  beq .L107
  mov r3, r0, asl #3
  sub r3, r3, #32
  ldr lr, .L516+12
  mov r0, r2, lsr r3
  mov r2, r1
  mov r1, r8
.L118:
  and r3, r0, #255
  mov r3, r3, asl #1
  add r2, r2, #1
  ldrh  r3, [r3, lr]
  cmp ip, r2
  strh  r3, [r1], #2  @ movhi
  mov r0, r0, lsr #8
  bne .L118
  add r8, r8, ip, asl #1
  b .L515
.L512:
  cmp r4, #0
  ldr r2, [r3, #0]
  beq .L185
  mov r3, r0, asl #2
  ldr r6, .L516+12
  mov r0, r2, asl r3
  mov r1, #0
  mov r2, r8
.L187:
  movs  r3, r0, lsr #28
  orr r3, r5, r3
  mov r3, r3, asl #1
  ldrneh  r3, [r3, r6]
  ldreqh  r3, [r6, #0]
  add r1, r1, #1
  strneh  r3, [r2, #0]  @ movhi
  streqh  r3, [r2, #0]  @ movhi
  cmp r4, r1
  mov r0, r0, asl #4
  add r2, r2, #2
  bne .L187
  b .L484
.L65:
  subs  r4, ip, #4
  ldr r2, [lr, #0]
  ldreq r5, .L516+12
  beq .L70
  mov r3, r0, asl #3
  ldr r5, .L516+12
  mov r0, r2, lsr r3
  mov r2, r1
  mov r1, r8
.L72:
  and r3, r0, #255
  mov r3, r3, asl #1
  add r2, r2, #1
  ldrh  r3, [r3, r5]
  cmp r4, r2
  strh  r3, [r1], #2  @ movhi
  mov r0, r0, lsr #8
  bne .L72
  add r3, r8, ip, asl #1
  sub r8, r3, #8
.L70:
  ldr r3, [lr, #4]
  and r0, r3, #255
  mov r0, r0, asl #1
  ldrh  r0, [r0, r5]
  mov r2, r3, lsr #8
  and r2, r2, #255
  strh  r0, [r8, #0]  @ movhi
  mov r2, r2, asl #1
  ldrh  r2, [r2, r5]
  mov r1, r3, lsr #16
  and r1, r1, #255
  strh  r2, [r8, #2]  @ movhi
  mov r1, r1, asl #1
  ldrh  r1, [r1, r5]
  mov r3, r3, lsr #24
  strh  r1, [r8, #4]  @ movhi
  mov r3, r3, asl #1
  ldrh  r3, [r3, r5]
  strh  r3, [r8, #6]  @ movhi
  add r8, r8, #8
  b .L57
.L55:
  subs  r4, ip, #4
  ldr r2, [lr, #4]
  ldreq r5, .L516+12
  beq .L61
  mov r3, r0, asl #3
  sub r3, r3, #32
  ldr r5, .L516+12
  mov r0, r2, asl r3
  mov r1, r8
  mov r2, #0
.L63:
  mov r3, r0, lsr #24
  mov r3, r3, asl #1
  add r2, r2, #1
  ldrh  r3, [r3, r5]
  cmp r4, r2
  strh  r3, [r1], #2  @ movhi
  mov r0, r0, asl #8
  bne .L63
  add r3, r8, ip, asl #1
  sub r8, r3, #8
.L61:
  ldr r3, [lr, #0]
  and r0, r3, #255
  mov r0, r0, asl #1
  ldrh  r0, [r0, r5]
  mov r2, r3, lsr #8
  and r2, r2, #255
  strh  r0, [r8, #6]  @ movhi
  mov r2, r2, asl #1
  ldrh  r2, [r2, r5]
  mov r1, r3, lsr #16
  and r1, r1, #255
  strh  r2, [r8, #4]  @ movhi
  mov r1, r1, asl #1
  ldrh  r1, [r1, r5]
  mov r3, r3, lsr #24
  strh  r1, [r8, #2]  @ movhi
  mov r3, r3, asl #1
  ldrh  r3, [r3, r5]
  strh  r3, [r8], #8  @ movhi
  b .L57
.L22:
  mov r3, r0, asl #3
  ldr r1, [ip, #4]
  add r2, fp, r0
  sub r3, r3, #32
  cmp r2, #4
  mov r1, r1, asl r3
  bhi .L27
  cmp fp, #0
  ldrne r0, .L516+12
  movne r2, #0
  beq .L431
.L36:
  mov r3, r1, lsr #24
  mov r3, r3, asl #1
  add r2, r2, #1
  ldrh  r3, [r3, r0]
  cmp fp, r2
  strh  r3, [r8], #2  @ movhi
  mov r1, r1, asl #8
  bne .L36
  b .L431
.L37:
  add r2, fp, r0
  ldr r3, [ip, #0]
  cmp r2, #4
  mov r1, r0, asl #3
  mov r2, r3, lsr r1
  bhi .L41
  cmp fp, #0
  ldrne r0, .L516+12
  movne r1, r4
  beq .L431
.L50:
  and r3, r2, #255
  mov r3, r3, asl #1
  add r1, r1, #1
  ldrh  r3, [r3, r0]
  cmp fp, r1
  strh  r3, [r8], #2  @ movhi
  mov r2, r2, lsr #8
  bne .L50
  b .L431
.L27:
  rsbs  lr, r0, #4
  beq .L30
  ldr r4, .L516+12
  mov r0, r8
  mov r2, #0
.L32:
  mov r3, r1, lsr #24
  mov r3, r3, asl #1
  add r2, r2, #1
  ldrh  r3, [r3, r4]
  cmp lr, r2
  strh  r3, [r0], #2  @ movhi
  mov r1, r1, asl #8
  bne .L32
  add r8, r8, lr, asl #1
.L30:
  subs  r0, fp, lr
  ldr r2, [ip, #0]
  beq .L431
  ldr ip, .L516+12
  mov r1, #0
.L35:
  mov r3, r2, lsr #24
  mov r3, r3, asl #1
  add r1, r1, #1
  ldrh  r3, [r3, ip]
  cmp r0, r1
  strh  r3, [r8], #2  @ movhi
  mov r2, r2, asl #8
  bne .L35
  b .L431
.L41:
  rsbs  lr, r0, #4
  beq .L44
  ldr r5, .L516+12
  mov r1, r4
  mov r0, r8
.L46:
  and r3, r2, #255
  mov r3, r3, asl #1
  add r1, r1, #1
  ldrh  r3, [r3, r5]
  cmp lr, r1
  strh  r3, [r0], #2  @ movhi
  mov r2, r2, lsr #8
  bne .L46
  add r8, r8, lr, asl #1
.L44:
  subs  r0, fp, lr
  ldr r2, [ip, #4]
  beq .L431
  ldr ip, .L516+12
  mov r1, #0
.L49:
  and r3, r2, #255
  mov r3, r3, asl #1
  add r1, r1, #1
  ldrh  r3, [r3, ip]
  cmp r0, r1
  strh  r3, [r8], #2  @ movhi
  mov r2, r2, lsr #8
  bne .L49
  b .L431
  .size render_scanline_text_base_normal, .-render_scanline_text_base_normal
  .align  2
  .global render_scanline_text_transparent_normal
  .type render_scanline_text_transparent_normal, %function
render_scanline_text_transparent_normal:
  @ args = 0, pretend = 0, frame = 4
  @ frame_needed = 0, uses_anonymous_args = 0
  ldr ip, .L1161
  stmfd sp!, {r4, r5, r6, r7, r8, r9, sl, fp, lr}
  add r5, ip, r0, asl #2
  ldrh  lr, [r5, #18]
  ldrh  r4, [ip, #6]
  add ip, ip, r0, asl #1
  add r4, r4, lr
  mov r6, r4, asl #23
  ldrh  r7, [ip, #8]
  mov r6, r6, lsr #23
  ldrh  r0, [r5, #16]
  cmp r6, #255
  movls lr, #0
  movhi lr, #1
  mov r5, r7, lsr #14
  rsb r9, r1, r2
  ldr r2, .L1161+4
  ands  lr, lr, r5, lsr #1
  mov ip, r7, asl #3
  add lr, r3, r1, asl #1
  ldr r8, .L1161+8
  subne r3, r6, #256
  ldr r2, [r2, r5, asl #2]
  movne r3, r3, lsr #3
  moveq r3, r4, asl #3
  add r0, r0, r1
  and ip, ip, #63488
  addne r3, r3, r2, lsr #3
  andeq r3, r3, #1984
  add ip, ip, r8
  mov r0, r0, asl #23
  addne r4, ip, r3, asl #6
  addeq r4, ip, r3
  mov r0, r0, lsr #23
  tst r5, #1
  andeq r0, r0, #255
  sub sp, sp, #4
  moveq r3, r0, lsr #3
  addeq ip, r4, r3, asl #1
  streq r4, [sp, #0]
  beq .L526
  cmp r0, #255
  subhi r0, r0, #256
  movhi r3, r0, lsr #3
  movls r3, r0, lsr #3
  addhi r3, r4, r3, asl #1
  addls ip, r4, r3, asl #1
  addls r4, r4, #2048
  addhi ip, r3, #2048
  strhi r4, [sp, #0]
  strls r4, [sp, #0]
.L526:
  tst r7, #128
  beq .L527
  and r1, r0, #255
  and r3, r6, #7
  mov r2, r7, asl #12
  mov r3, r3, asl #3
  and r2, r2, #49152
  rsb sl, r1, #256
  add r2, r2, r3
  cmp r9, sl
  mov r3, r3, asl #1
  add r8, r2, r8
  rsb fp, r3, #56
  and r0, r0, #7
  bls .L1136
  cmp r0, #0
  moveq r5, r0
  bne .L1137
.L729:
  rsb r3, r5, sl
  movs  r7, r3, lsr #3
  beq .L783
  ldr r5, .L1161+12
  mov r0, lr
  mov r6, #0
  b .L785
.L1138:
  ldr r2, [r1, #4]
  cmp r2, #0
  beq .L790
  ands  r3, r2, #255
  movne r3, r3, asl #1
  ldrneh  r3, [r3, r5]
  strneh  r3, [r0, #6]  @ movhi
  mov r3, r2, lsr #8
  ands  r3, r3, #255
  movne r3, r3, asl #1
  ldrneh  r3, [r3, r5]
  strneh  r3, [r0, #4]  @ movhi
  mov r3, r2, lsr #16
  ands  r3, r3, #255
  movne r3, r3, asl #1
  ldrneh  r3, [r3, r5]
  strneh  r3, [r0, #2]  @ movhi
  movs  r3, r2, lsr #24
  movne r3, r3, asl #1
  ldrneh  r3, [r3, r5]
  strneh  r3, [r0, #0]  @ movhi
.L790:
  ldr r2, [r1, #0]
  cmp r2, #0
  beq .L799
  ands  r3, r2, #255
  movne r3, r3, asl #1
  ldrneh  r3, [r3, r5]
  strneh  r3, [r0, #14] @ movhi
  mov r3, r2, lsr #8
  ands  r3, r3, #255
  movne r3, r3, asl #1
  ldrneh  r3, [r3, r5]
  strneh  r3, [r0, #12] @ movhi
  mov r3, r2, lsr #16
  ands  r3, r3, #255
  movne r3, r3, asl #1
  ldrneh  r3, [r3, r5]
  strneh  r3, [r0, #10] @ movhi
  movs  r3, r2, lsr #24
  movne r3, r3, asl #1
  ldrneh  r3, [r3, r5]
  strneh  r3, [r0, #8]  @ movhi
.L799:
  add r6, r6, #1
  cmp r7, r6
  add r0, r0, #16
  beq .L825
.L1139:
  add ip, ip, #2
.L785:
  ldrh  r2, [ip, #0]
  mov r3, r2, asl #22
  mov r3, r3, lsr #22
  tst r2, #2048
  add r1, r8, r3, asl #6
  addne r1, r1, fp
  tst r2, #1024
  bne .L1138
  ldr r2, [r1, #0]
  cmp r2, #0
  beq .L808
  ands  r3, r2, #255
  movne r3, r3, asl #1
  ldrneh  r3, [r3, r5]
  strneh  r3, [r0, #0]  @ movhi
  mov r3, r2, lsr #8
  ands  r3, r3, #255
  movne r3, r3, asl #1
  ldrneh  r3, [r3, r5]
  strneh  r3, [r0, #2]  @ movhi
  mov r3, r2, lsr #16
  ands  r3, r3, #255
  movne r3, r3, asl #1
  ldrneh  r3, [r3, r5]
  strneh  r3, [r0, #4]  @ movhi
  movs  r3, r2, lsr #24
  movne r3, r3, asl #1
  ldrneh  r3, [r3, r5]
  strneh  r3, [r0, #6]  @ movhi
.L808:
  ldr r2, [r1, #4]
  cmp r2, #0
  beq .L799
  ands  r3, r2, #255
  movne r3, r3, asl #1
  ldrneh  r3, [r3, r5]
  add r6, r6, #1
  strneh  r3, [r0, #8]  @ movhi
  mov r3, r2, lsr #8
  ands  r3, r3, #255
  movne r3, r3, asl #1
  ldrneh  r3, [r3, r5]
  strneh  r3, [r0, #10] @ movhi
  mov r3, r2, lsr #16
  ands  r3, r3, #255
  movne r3, r3, asl #1
  ldrneh  r3, [r3, r5]
  strneh  r3, [r0, #12] @ movhi
  movs  r3, r2, lsr #24
  movne r3, r3, asl #1
  ldrneh  r3, [r3, r5]
  strneh  r3, [r0, #14] @ movhi
  cmp r7, r6
  add r0, r0, #16
  bne .L1139
.L825:
  add lr, lr, r7, asl #4
.L783:
  rsb sl, sl, r9
  movs  r4, sl, lsr #3
  ldreq r3, [sp, #0]
  beq .L829
  ldr r7, .L1161+12
  ldr r6, [sp, #0]
  mov r5, lr
  mov r2, #0
  b .L830
.L1141:
  ldr r1, [r0, #4]
  cmp r1, #0
  beq .L835
  ands  r3, r1, #255
  movne r3, r3, asl #1
  ldrneh  r3, [r3, r7]
  strneh  r3, [r5, #6]  @ movhi
  mov r3, r1, lsr #8
  ands  r3, r3, #255
  movne r3, r3, asl #1
  ldrneh  r3, [r3, r7]
  strneh  r3, [r5, #4]  @ movhi
  mov r3, r1, lsr #16
  ands  r3, r3, #255
  movne r3, r3, asl #1
  ldrneh  r3, [r3, r7]
  strneh  r3, [r5, #2]  @ movhi
  movs  r3, r1, lsr #24
  movne r3, r3, asl #1
  ldrneh  r3, [r3, r7]
  strneh  r3, [r5, #0]  @ movhi
.L835:
  ldr r1, [r0, #0]
  cmp r1, #0
  beq .L844
  ands  r3, r1, #255
  movne r3, r3, asl #1
  ldrneh  r3, [r3, r7]
  strneh  r3, [r5, #14] @ movhi
  mov r3, r1, lsr #8
  ands  r3, r3, #255
  movne r3, r3, asl #1
  ldrneh  r3, [r3, r7]
  strneh  r3, [r5, #12] @ movhi
  mov r3, r1, lsr #16
  ands  r3, r3, #255
  movne r3, r3, asl #1
  ldrneh  r3, [r3, r7]
  strneh  r3, [r5, #10] @ movhi
  movs  r3, r1, lsr #24
  movne r3, r3, asl #1
  ldrneh  r3, [r3, r7]
  strneh  r3, [r5, #8]  @ movhi
.L844:
  add r2, r2, #1
  cmp r4, r2
  add r5, r5, #16
  add r6, r6, #2
  beq .L1140
.L830:
  ldrh  r1, [r6, #0]
  mov r3, r1, asl #22
  mov r3, r3, lsr #22
  tst r1, #2048
  add r0, r8, r3, asl #6
  addne r0, r0, fp
  tst r1, #1024
  bne .L1141
  ldr r1, [r0, #0]
  cmp r1, #0
  beq .L853
  ands  r3, r1, #255
  movne r3, r3, asl #1
  ldrneh  r3, [r3, r7]
  strneh  r3, [r5, #0]  @ movhi
  mov r3, r1, lsr #8
  ands  r3, r3, #255
  movne r3, r3, asl #1
  ldrneh  r3, [r3, r7]
  strneh  r3, [r5, #2]  @ movhi
  mov r3, r1, lsr #16
  ands  r3, r3, #255
  movne r3, r3, asl #1
  ldrneh  r3, [r3, r7]
  strneh  r3, [r5, #4]  @ movhi
  movs  r3, r1, lsr #24
  movne r3, r3, asl #1
  ldrneh  r3, [r3, r7]
  strneh  r3, [r5, #6]  @ movhi
.L853:
  ldr r1, [r0, #4]
  cmp r1, #0
  beq .L844
  ands  r3, r1, #255
  movne r3, r3, asl #1
  ldrneh  r3, [r3, r7]
  add r2, r2, #1
  strneh  r3, [r5, #8]  @ movhi
  mov r3, r1, lsr #8
  ands  r3, r3, #255
  movne r3, r3, asl #1
  ldrneh  r3, [r3, r7]
  add r6, r6, #2
  strneh  r3, [r5, #10] @ movhi
  mov r3, r1, lsr #16
  ands  r3, r3, #255
  movne r3, r3, asl #1
  ldrneh  r3, [r3, r7]
  strneh  r3, [r5, #12] @ movhi
  movs  r3, r1, lsr #24
  movne r3, r3, asl #1
  ldrneh  r3, [r3, r7]
  strneh  r3, [r5, #14] @ movhi
  cmp r4, r2
  add r5, r5, #16
  bne .L830
.L1140:
  ldr r2, [sp, #0]
  add lr, lr, r4, asl #4
  add r3, r2, r4, asl #1
.L829:
  ands  r5, sl, #7
  beq .L1118
  ldrh  r4, [r3, #0]
  mov r3, r4, asl #22
  mov r3, r3, lsr #22
  tst r4, #2048
  add ip, r8, r3, asl #6
  addne ip, ip, fp
  tst r4, #1024
  beq .L874
  cmp r5, #3
  ldrls r2, [ip, #4]
  bls .L888
  ldr r1, [ip, #4]
  cmp r1, #0
  beq .L878
  ands  r2, r1, #255
  ldrne r3, .L1161+12
  movne r2, r2, asl #1
  ldrneh  r2, [r2, r3]
  mov r3, r1, lsr #8
  strneh  r2, [lr, #6]  @ movhi
  ands  r2, r3, #255
  ldrne r3, .L1161+12
  movne r2, r2, asl #1
  ldrneh  r2, [r2, r3]
  mov r3, r1, lsr #16
  strneh  r2, [lr, #4]  @ movhi
  ands  r2, r3, #255
  ldrne r3, .L1161+12
  movne r2, r2, asl #1
  ldrneh  r2, [r2, r3]
  strneh  r2, [lr, #2]  @ movhi
  movs  r2, r1, lsr #24
  ldrne r3, .L1161+12
  movne r2, r2, asl #1
  ldrneh  r2, [r2, r3]
  strneh  r2, [lr, #0]  @ movhi
.L878:
  subs  r5, r5, #4
  ldr r2, [ip, #0]
  addne lr, lr, #8
  beq .L1118
.L888:
  mov r1, #0
.L889:
  movs  r3, r2, lsr #24
  mov ip, r3, asl #1
  ldrne r3, .L1161+12
  mov r0, r1, asl #1
  ldrneh  ip, [ip, r3]
  add r1, r1, #1
  strneh  ip, [r0, lr]  @ movhi
  cmp r1, r5
  mov r2, r2, asl #8
  bcc .L889
.L1118:
  add sp, sp, #4
  ldmfd sp!, {r4, r5, r6, r7, r8, r9, sl, fp, pc}
.L527:
  and r1, r0, #255
  and r3, r6, #7
  mov r2, r7, asl #12
  mov r3, r3, asl #2
  and r2, r2, #49152
  rsb r4, r1, #256
  add r2, r2, r3
  cmp r9, r4
  mov r3, r3, asl #1
  add r8, r2, r8
  rsb fp, r3, #28
  and r0, r0, #7
  bls .L1142
  cmp r0, #0
  moveq r6, r0
  bne .L1143
.L1003:
  rsb r3, r6, r4
  movs  sl, r3, lsr #3
  beq .L1021
  ldr r6, .L1161+12
  mov r0, lr
  mov r7, #0
  b .L1023
.L1144:
  ldr r2, [r3, #0]
  cmp r2, #0
  beq .L1028
  ands  r3, r2, #15
  orrne r3, r5, r3
  movne r3, r3, asl #1
  ldrneh  r3, [r3, r6]
  strneh  r3, [r0, #14] @ movhi
  mov r3, r2, lsr #4
  ands  r3, r3, #15
  orrne r3, r5, r3
  movne r3, r3, asl #1
  ldrneh  r3, [r3, r6]
  strneh  r3, [r0, #12] @ movhi
  mov r3, r2, lsr #8
  ands  r3, r3, #15
  orrne r3, r5, r3
  movne r3, r3, asl #1
  ldrneh  r3, [r3, r6]
  strneh  r3, [r0, #10] @ movhi
  mov r3, r2, lsr #12
  ands  r3, r3, #15
  orrne r3, r5, r3
  movne r3, r3, asl #1
  ldrneh  r3, [r3, r6]
  strneh  r3, [r0, #8]  @ movhi
  mov r3, r2, lsr #16
  ands  r3, r3, #15
  orrne r3, r5, r3
  movne r3, r3, asl #1
  ldrneh  r3, [r3, r6]
  strneh  r3, [r0, #6]  @ movhi
  mov r3, r2, lsr #20
  ands  r3, r3, #15
  orrne r3, r5, r3
  movne r3, r3, asl #1
  ldrneh  r3, [r3, r6]
  strneh  r3, [r0, #4]  @ movhi
  mov r3, r2, lsr #24
  ands  r3, r3, #15
  orrne r3, r5, r3
  movne r3, r3, asl #1
  ldrneh  r3, [r3, r6]
  strneh  r3, [r0, #2]  @ movhi
  movs  r3, r2, lsr #28
  orrne r3, r5, r3
  movne r3, r3, asl #1
  ldrneh  r3, [r3, r6]
  strneh  r3, [r0, #0]  @ movhi
.L1028:
  add r7, r7, #1
  cmp sl, r7
  add r0, r0, #16
  beq .L1061
.L1145:
  add ip, ip, #2
.L1023:
  ldrh  r1, [ip, #0]
  mov r2, r1, asl #22
  mov r3, r1, lsr #12
  mov r2, r2, lsr #22
  tst r1, #2048
  mov r5, r3, asl #4
  add r3, r8, r2, asl #5
  addne r3, r3, fp
  tst r1, #1024
  bne .L1144
  ldr r2, [r3, #0]
  cmp r2, #0
  beq .L1028
  ands  r3, r2, #15
  orrne r3, r5, r3
  movne r3, r3, asl #1
  ldrneh  r3, [r3, r6]
  add r7, r7, #1
  strneh  r3, [r0, #0]  @ movhi
  mov r3, r2, lsr #4
  ands  r3, r3, #15
  orrne r3, r5, r3
  movne r3, r3, asl #1
  ldrneh  r3, [r3, r6]
  strneh  r3, [r0, #2]  @ movhi
  mov r3, r2, lsr #8
  ands  r3, r3, #15
  orrne r3, r5, r3
  movne r3, r3, asl #1
  ldrneh  r3, [r3, r6]
  strneh  r3, [r0, #4]  @ movhi
  mov r3, r2, lsr #12
  ands  r3, r3, #15
  orrne r3, r5, r3
  movne r3, r3, asl #1
  ldrneh  r3, [r3, r6]
  strneh  r3, [r0, #6]  @ movhi
  mov r3, r2, lsr #16
  ands  r3, r3, #15
  orrne r3, r5, r3
  movne r3, r3, asl #1
  ldrneh  r3, [r3, r6]
  strneh  r3, [r0, #8]  @ movhi
  mov r3, r2, lsr #20
  ands  r3, r3, #15
  orrne r3, r5, r3
  movne r3, r3, asl #1
  ldrneh  r3, [r3, r6]
  strneh  r3, [r0, #10] @ movhi
  mov r3, r2, lsr #24
  ands  r3, r3, #15
  orrne r3, r5, r3
  movne r3, r3, asl #1
  ldrneh  r3, [r3, r6]
  strneh  r3, [r0, #12] @ movhi
  movs  r3, r2, lsr #28
  orrne r3, r5, r3
  movne r3, r3, asl #1
  ldrneh  r3, [r3, r6]
  strneh  r3, [r0, #14] @ movhi
  cmp sl, r7
  add r0, r0, #16
  bne .L1145
.L1061:
  add lr, lr, sl, asl #4
.L1021:
  rsb sl, r4, r9
  movs  r4, sl, lsr #3
  ldreq r2, [sp, #0]
  beq .L1065
  ldr r7, .L1161+12
  ldr r6, [sp, #0]
  mov r0, lr
  mov ip, #0
  b .L1066
.L1147:
  ldr r2, [r3, #0]
  cmp r2, #0
  beq .L1071
  ands  r3, r2, #15
  orrne r3, r5, r3
  movne r3, r3, asl #1
  ldrneh  r3, [r3, r7]
  strneh  r3, [r0, #14] @ movhi
  mov r3, r2, lsr #4
  ands  r3, r3, #15
  orrne r3, r5, r3
  movne r3, r3, asl #1
  ldrneh  r3, [r3, r7]
  strneh  r3, [r0, #12] @ movhi
  mov r3, r2, lsr #8
  ands  r3, r3, #15
  orrne r3, r5, r3
  movne r3, r3, asl #1
  ldrneh  r3, [r3, r7]
  strneh  r3, [r0, #10] @ movhi
  mov r3, r2, lsr #12
  ands  r3, r3, #15
  orrne r3, r5, r3
  movne r3, r3, asl #1
  ldrneh  r3, [r3, r7]
  strneh  r3, [r0, #8]  @ movhi
  mov r3, r2, lsr #16
  ands  r3, r3, #15
  orrne r3, r5, r3
  movne r3, r3, asl #1
  ldrneh  r3, [r3, r7]
  strneh  r3, [r0, #6]  @ movhi
  mov r3, r2, lsr #20
  ands  r3, r3, #15
  orrne r3, r5, r3
  movne r3, r3, asl #1
  ldrneh  r3, [r3, r7]
  strneh  r3, [r0, #4]  @ movhi
  mov r3, r2, lsr #24
  ands  r3, r3, #15
  orrne r3, r5, r3
  movne r3, r3, asl #1
  ldrneh  r3, [r3, r7]
  strneh  r3, [r0, #2]  @ movhi
  movs  r3, r2, lsr #28
  orrne r3, r5, r3
  movne r3, r3, asl #1
  ldrneh  r3, [r3, r7]
  strneh  r3, [r0, #0]  @ movhi
.L1071:
  add ip, ip, #1
  cmp r4, ip
  add r0, r0, #16
  add r6, r6, #2
  beq .L1146
.L1066:
  ldrh  r1, [r6, #0]
  mov r2, r1, asl #22
  mov r3, r1, lsr #12
  mov r2, r2, lsr #22
  tst r1, #2048
  mov r5, r3, asl #4
  add r3, r8, r2, asl #5
  addne r3, r3, fp
  tst r1, #1024
  bne .L1147
  ldr r2, [r3, #0]
  cmp r2, #0
  beq .L1071
  ands  r3, r2, #15
  orrne r3, r5, r3
  movne r3, r3, asl #1
  ldrneh  r3, [r3, r7]
  add ip, ip, #1
  strneh  r3, [r0, #0]  @ movhi
  mov r3, r2, lsr #4
  ands  r3, r3, #15
  orrne r3, r5, r3
  movne r3, r3, asl #1
  ldrneh  r3, [r3, r7]
  add r6, r6, #2
  strneh  r3, [r0, #2]  @ movhi
  mov r3, r2, lsr #8
  ands  r3, r3, #15
  orrne r3, r5, r3
  movne r3, r3, asl #1
  ldrneh  r3, [r3, r7]
  strneh  r3, [r0, #4]  @ movhi
  mov r3, r2, lsr #12
  ands  r3, r3, #15
  orrne r3, r5, r3
  movne r3, r3, asl #1
  ldrneh  r3, [r3, r7]
  strneh  r3, [r0, #6]  @ movhi
  mov r3, r2, lsr #16
  ands  r3, r3, #15
  orrne r3, r5, r3
  movne r3, r3, asl #1
  ldrneh  r3, [r3, r7]
  strneh  r3, [r0, #8]  @ movhi
  mov r3, r2, lsr #20
  ands  r3, r3, #15
  orrne r3, r5, r3
  movne r3, r3, asl #1
  ldrneh  r3, [r3, r7]
  strneh  r3, [r0, #10] @ movhi
  mov r3, r2, lsr #24
  ands  r3, r3, #15
  orrne r3, r5, r3
  movne r3, r3, asl #1
  ldrneh  r3, [r3, r7]
  strneh  r3, [r0, #12] @ movhi
  movs  r3, r2, lsr #28
  orrne r3, r5, r3
  movne r3, r3, asl #1
  ldrneh  r3, [r3, r7]
  strneh  r3, [r0, #14] @ movhi
  cmp r4, ip
  add r0, r0, #16
  bne .L1066
.L1146:
  ldr r3, [sp, #0]
  add lr, lr, r4, asl #4
  add r2, r3, r4, asl #1
.L1065:
  ands  r5, sl, #7
  beq .L1118
  ldrh  r4, [r2, #0]
  mov r3, r4, asl #22
  mov r3, r3, lsr #22
  tst r4, #2048
  add r3, r8, r3, asl #5
  mov r2, r4, lsr #12
  addne r3, r3, fp
  tst r4, #1024
  mov ip, r2, asl #4
  beq .L1108
  ldr r2, [r3, #0]
  ldr r4, .L1161+12
  mov r0, #0
.L1110:
  movs  r3, r2, lsr #28
  orr r3, ip, r3
  mov r3, r3, asl #1
  ldrneh  r3, [r3, r4]
  mov r1, r0, asl #1
  add r0, r0, #1
  strneh  r3, [r1, lr]  @ movhi
  cmp r5, r0
  mov r2, r2, asl #4
  bne .L1110
  b .L1118
.L1142:
  cmp r0, #0
  bne .L1148
.L912:
  movs  sl, r9, lsr #3
  beq .L947
  ldr r6, .L1161+12
  mov r0, lr
  mov r5, ip
  mov r7, #0
  b .L949
.L1150:
  ldr r2, [r3, #0]
  cmp r2, #0
  beq .L954
  ands  r3, r2, #15
  orrne r3, r4, r3
  movne r3, r3, asl #1
  ldrneh  r3, [r3, r6]
  strneh  r3, [r0, #14] @ movhi
  mov r3, r2, lsr #4
  ands  r3, r3, #15
  orrne r3, r4, r3
  movne r3, r3, asl #1
  ldrneh  r3, [r3, r6]
  strneh  r3, [r0, #12] @ movhi
  mov r3, r2, lsr #8
  ands  r3, r3, #15
  orrne r3, r4, r3
  movne r3, r3, asl #1
  ldrneh  r3, [r3, r6]
  strneh  r3, [r0, #10] @ movhi
  mov r3, r2, lsr #12
  ands  r3, r3, #15
  orrne r3, r4, r3
  movne r3, r3, asl #1
  ldrneh  r3, [r3, r6]
  strneh  r3, [r0, #8]  @ movhi
  mov r3, r2, lsr #16
  ands  r3, r3, #15
  orrne r3, r4, r3
  movne r3, r3, asl #1
  ldrneh  r3, [r3, r6]
  strneh  r3, [r0, #6]  @ movhi
  mov r3, r2, lsr #20
  ands  r3, r3, #15
  orrne r3, r4, r3
  movne r3, r3, asl #1
  ldrneh  r3, [r3, r6]
  strneh  r3, [r0, #4]  @ movhi
  mov r3, r2, lsr #24
  ands  r3, r3, #15
  orrne r3, r4, r3
  movne r3, r3, asl #1
  ldrneh  r3, [r3, r6]
  strneh  r3, [r0, #2]  @ movhi
  movs  r3, r2, lsr #28
  orrne r3, r4, r3
  movne r3, r3, asl #1
  ldrneh  r3, [r3, r6]
  strneh  r3, [r0, #0]  @ movhi
.L954:
  add r7, r7, #1
  cmp sl, r7
  add r0, r0, #16
  add r5, r5, #2
  beq .L1149
.L949:
  ldrh  r1, [r5, #0]
  mov r2, r1, asl #22
  mov r3, r1, lsr #12
  mov r2, r2, lsr #22
  tst r1, #2048
  mov r4, r3, asl #4
  add r3, r8, r2, asl #5
  addne r3, r3, fp
  tst r1, #1024
  bne .L1150
  ldr r2, [r3, #0]
  cmp r2, #0
  beq .L954
  ands  r3, r2, #15
  orrne r3, r4, r3
  movne r3, r3, asl #1
  ldrneh  r3, [r3, r6]
  add r7, r7, #1
  strneh  r3, [r0, #0]  @ movhi
  mov r3, r2, lsr #4
  ands  r3, r3, #15
  orrne r3, r4, r3
  movne r3, r3, asl #1
  ldrneh  r3, [r3, r6]
  add r5, r5, #2
  strneh  r3, [r0, #2]  @ movhi
  mov r3, r2, lsr #8
  ands  r3, r3, #15
  orrne r3, r4, r3
  movne r3, r3, asl #1
  ldrneh  r3, [r3, r6]
  strneh  r3, [r0, #4]  @ movhi
  mov r3, r2, lsr #12
  ands  r3, r3, #15
  orrne r3, r4, r3
  movne r3, r3, asl #1
  ldrneh  r3, [r3, r6]
  strneh  r3, [r0, #6]  @ movhi
  mov r3, r2, lsr #16
  ands  r3, r3, #15
  orrne r3, r4, r3
  movne r3, r3, asl #1
  ldrneh  r3, [r3, r6]
  strneh  r3, [r0, #8]  @ movhi
  mov r3, r2, lsr #20
  ands  r3, r3, #15
  orrne r3, r4, r3
  movne r3, r3, asl #1
  ldrneh  r3, [r3, r6]
  strneh  r3, [r0, #10] @ movhi
  mov r3, r2, lsr #24
  ands  r3, r3, #15
  orrne r3, r4, r3
  movne r3, r3, asl #1
  ldrneh  r3, [r3, r6]
  strneh  r3, [r0, #12] @ movhi
  movs  r3, r2, lsr #28
  orrne r3, r4, r3
  movne r3, r3, asl #1
  ldrneh  r3, [r3, r6]
  strneh  r3, [r0, #14] @ movhi
  cmp sl, r7
  add r0, r0, #16
  bne .L949
.L1149:
  add lr, lr, sl, asl #4
  add ip, ip, sl, asl #1
.L947:
  ands  r4, r9, #7
  beq .L1118
  ldrh  r1, [ip, #0]
  mov r3, r1, asl #22
  mov r3, r3, lsr #22
  tst r1, #2048
  add r3, r8, r3, asl #5
  mov r2, r1, lsr #12
  addne r3, r3, fp
  tst r1, #1024
  mov ip, r2, asl #4
  beq .L991
  ldr r2, [r3, #0]
  ldr r5, .L1161+12
  mov r0, #0
.L993:
  movs  r3, r2, lsr #28
  orr r3, ip, r3
  mov r3, r3, asl #1
  ldrneh  r3, [r3, r5]
  mov r1, r0, asl #1
  add r0, r0, #1
  strneh  r3, [r1, lr]  @ movhi
  cmp r4, r0
  mov r2, r2, asl #4
  bne .L993
  b .L1118
.L1136:
  cmp r0, #0
  bne .L1151
.L531:
  movs  r7, r9, lsr #3
  beq .L645
  ldr r5, .L1161+12
  mov r0, lr
  mov r4, ip
  mov r6, #0
  b .L647
.L1153:
  ldr r2, [r1, #4]
  cmp r2, #0
  beq .L652
  ands  r3, r2, #255
  movne r3, r3, asl #1
  ldrneh  r3, [r3, r5]
  strneh  r3, [r0, #6]  @ movhi
  mov r3, r2, lsr #8
  ands  r3, r3, #255
  movne r3, r3, asl #1
  ldrneh  r3, [r3, r5]
  strneh  r3, [r0, #4]  @ movhi
  mov r3, r2, lsr #16
  ands  r3, r3, #255
  movne r3, r3, asl #1
  ldrneh  r3, [r3, r5]
  strneh  r3, [r0, #2]  @ movhi
  movs  r3, r2, lsr #24
  movne r3, r3, asl #1
  ldrneh  r3, [r3, r5]
  strneh  r3, [r0, #0]  @ movhi
.L652:
  ldr r2, [r1, #0]
  cmp r2, #0
  beq .L661
  ands  r3, r2, #255
  movne r3, r3, asl #1
  ldrneh  r3, [r3, r5]
  strneh  r3, [r0, #14] @ movhi
  mov r3, r2, lsr #8
  ands  r3, r3, #255
  movne r3, r3, asl #1
  ldrneh  r3, [r3, r5]
  strneh  r3, [r0, #12] @ movhi
  mov r3, r2, lsr #16
  ands  r3, r3, #255
  movne r3, r3, asl #1
  ldrneh  r3, [r3, r5]
  strneh  r3, [r0, #10] @ movhi
  movs  r3, r2, lsr #24
  movne r3, r3, asl #1
  ldrneh  r3, [r3, r5]
  strneh  r3, [r0, #8]  @ movhi
.L661:
  add r6, r6, #1
  cmp r7, r6
  add r0, r0, #16
  add r4, r4, #2
  beq .L1152
.L647:
  ldrh  r2, [r4, #0]
  mov r3, r2, asl #22
  mov r3, r3, lsr #22
  tst r2, #2048
  add r1, r8, r3, asl #6
  addne r1, r1, fp
  tst r2, #1024
  bne .L1153
  ldr r2, [r1, #0]
  cmp r2, #0
  beq .L670
  ands  r3, r2, #255
  movne r3, r3, asl #1
  ldrneh  r3, [r3, r5]
  strneh  r3, [r0, #0]  @ movhi
  mov r3, r2, lsr #8
  ands  r3, r3, #255
  movne r3, r3, asl #1
  ldrneh  r3, [r3, r5]
  strneh  r3, [r0, #2]  @ movhi
  mov r3, r2, lsr #16
  ands  r3, r3, #255
  movne r3, r3, asl #1
  ldrneh  r3, [r3, r5]
  strneh  r3, [r0, #4]  @ movhi
  movs  r3, r2, lsr #24
  movne r3, r3, asl #1
  ldrneh  r3, [r3, r5]
  strneh  r3, [r0, #6]  @ movhi
.L670:
  ldr r2, [r1, #4]
  cmp r2, #0
  beq .L661
  ands  r3, r2, #255
  movne r3, r3, asl #1
  ldrneh  r3, [r3, r5]
  add r6, r6, #1
  strneh  r3, [r0, #8]  @ movhi
  mov r3, r2, lsr #8
  ands  r3, r3, #255
  movne r3, r3, asl #1
  ldrneh  r3, [r3, r5]
  add r4, r4, #2
  strneh  r3, [r0, #10] @ movhi
  mov r3, r2, lsr #16
  ands  r3, r3, #255
  movne r3, r3, asl #1
  ldrneh  r3, [r3, r5]
  strneh  r3, [r0, #12] @ movhi
  movs  r3, r2, lsr #24
  movne r3, r3, asl #1
  ldrneh  r3, [r3, r5]
  strneh  r3, [r0, #14] @ movhi
  cmp r7, r6
  add r0, r0, #16
  bne .L647
.L1152:
  add lr, lr, r7, asl #4
  add ip, ip, r7, asl #1
.L645:
  ands  r4, r9, #7
  beq .L1118
  ldrh  r2, [ip, #0]
  mov r3, r2, asl #22
  mov r3, r3, lsr #22
  tst r2, #2048
  add ip, r8, r3, asl #6
  addne ip, ip, fp
  tst r2, #1024
  beq .L691
  cmp r4, #3
  ldrls r2, [ip, #4]
  bls .L705
  ldr r1, [ip, #4]
  cmp r1, #0
  beq .L695
  ands  r2, r1, #255
  ldrne r3, .L1161+12
  movne r2, r2, asl #1
  ldrneh  r2, [r2, r3]
  mov r3, r1, lsr #8
  strneh  r2, [lr, #6]  @ movhi
  ands  r2, r3, #255
  ldrne r3, .L1161+12
  movne r2, r2, asl #1
  ldrneh  r2, [r2, r3]
  mov r3, r1, lsr #16
  strneh  r2, [lr, #4]  @ movhi
  ands  r2, r3, #255
  ldrne r3, .L1161+12
  movne r2, r2, asl #1
  ldrneh  r2, [r2, r3]
  strneh  r2, [lr, #2]  @ movhi
  movs  r2, r1, lsr #24
  ldrne r3, .L1161+12
  movne r2, r2, asl #1
  ldrneh  r2, [r2, r3]
  strneh  r2, [lr, #0]  @ movhi
.L695:
  subs  r4, r4, #4
  ldr r2, [ip, #0]
  addne lr, lr, #8
  beq .L1118
.L705:
  mov r1, #0
.L706:
  movs  r3, r2, lsr #24
  mov ip, r3, asl #1
  ldrne r3, .L1161+12
  mov r0, r1, asl #1
  ldrneh  ip, [ip, r3]
  add r1, r1, #1
  strneh  ip, [r0, lr]  @ movhi
  cmp r4, r1
  mov r2, r2, asl #8
  bhi .L706
  b .L1118
.L1148:
  rsb r4, r0, #8
  cmp r9, r4
  bcs .L914
  ldrh  r1, [ip, #0]
  mov r3, r1, asl #22
  mov r3, r3, lsr #22
  tst r1, #2048
  add ip, r8, r3, asl #5
  mov r2, r1, lsr #12
  addne ip, ip, fp
  tst r1, #1024
  mov r2, r2, asl #4
  bne .L1154
  cmp r9, #0
  ldr ip, [ip, #0]
  beq .L1118
  mov r3, r0, asl #2
  ldr r4, .L1161+12
  mov r0, ip, lsr r3
  mov ip, #0
.L926:
  ands  r3, r0, #15
  orr r3, r2, r3
  mov r3, r3, asl #1
  ldrneh  r3, [r3, r4]
  mov r1, ip, asl #1
  add ip, ip, #1
  strneh  r3, [r1, lr]  @ movhi
  cmp r9, ip
  mov r0, r0, lsr #4
  bne .L926
  b .L1118
.L1162:
  .align  2
.L1161:
  .word io_registers
  .word map_widths
  .word vram
  .word palette_ram_converted
.L1137:
  ldrh  r2, [ip, #0]
  rsb r5, r0, #8
  mov r3, r2, asl #22
  mov r3, r3, lsr #22
  tst r2, #2048
  add r6, r8, r3, asl #6
  addne r6, r6, fp
  ands  r2, r2, #1024
  beq .L732
  cmp r0, #3
  bhi .L1155
  subs  r4, r5, #4
  ldr r2, [r6, #4]
  beq .L743
  mov r3, r0, asl #3
  sub r3, r3, #32
  mov r0, r2, asl r3
  ldr r7, .L1161+12
  mov r1, #0
.L745:
  movs  r3, r0, lsr #24
  mov r3, r3, asl #1
  ldrneh  r3, [r3, r7]
  mov r2, r1, asl #1
  add r1, r1, #1
  strneh  r3, [r2, lr]  @ movhi
  cmp r4, r1
  mov r0, r0, asl #8
  bne .L745
  add r3, lr, r5, asl #1
  sub lr, r3, #8
.L743:
  ldr r1, [r6, #0]
  cmp r1, #0
  beq .L774
  ands  r2, r1, #255
  ldrne r3, .L1161+12
  movne r2, r2, asl #1
  ldrneh  r2, [r2, r3]
  mov r3, r1, lsr #8
  strneh  r2, [lr, #6]  @ movhi
  ands  r2, r3, #255
  ldrne r3, .L1161+12
  movne r2, r2, asl #1
  ldrneh  r2, [r2, r3]
  mov r3, r1, lsr #16
  strneh  r2, [lr, #4]  @ movhi
  ands  r2, r3, #255
  ldrne r3, .L1161+12
  movne r2, r2, asl #1
  ldrneh  r2, [r2, r3]
  strneh  r2, [lr, #2]  @ movhi
  movs  r2, r1, lsr #24
  ldrne r3, .L1161+12
  movne r2, r2, asl #1
  ldrneh  r2, [r2, r3]
  strneh  r2, [lr, #0]  @ movhi
.L774:
  add lr, lr, #8
  mov r5, r4
.L736:
  add ip, ip, #2
  b .L729
.L1143:
  ldrh  r5, [ip, #0]
  rsb r6, r0, #8
  mov r2, r5, asl #22
  mov r3, r5, lsr #12
  mov r2, r2, lsr #22
  tst r5, #2048
  mov r7, r3, asl #4
  add r3, r8, r2, asl #5
  addne r3, r3, fp
  tst r5, #1024
  beq .L1006
  cmp r6, #0
  ldr r2, [r3, #0]
  beq .L1008
  mov r3, r0, asl #2
  mov r0, r2, asl r3
  ldr r5, .L1161+12
  mov r1, #0
.L1010:
  movs  r3, r0, lsr #28
  orr r3, r7, r3
  mov r3, r3, asl #1
  ldrneh  r3, [r3, r5]
  mov r2, r1, asl #1
  add r1, r1, #1
  strneh  r3, [r2, lr]  @ movhi
  cmp r6, r1
  mov r0, r0, asl #4
  bne .L1010
  add lr, lr, r6, asl #1
.L1008:
  add ip, ip, #2
  b .L1003
.L1151:
  rsb r4, r0, #8
  cmp r9, r4
  bcs .L533
  ldrh  r2, [ip, #0]
  mov r3, r2, asl #22
  mov r3, r3, lsr #22
  tst r2, #2048
  add ip, r8, r3, asl #6
  addne ip, ip, fp
  tst r2, #1024
  bne .L1156
  cmp r0, #3
  bls .L566
  cmp r9, #0
  ldr r2, [ip, #4]
  beq .L1118
  mov r3, r0, asl #3
  sub r3, r3, #32
  mov r0, r2, lsr r3
  ldr ip, .L1161+12
  mov r1, #0
.L569:
  ands  r3, r0, #255
  mov r3, r3, asl #1
  ldrneh  r3, [r3, ip]
  mov r2, r1, asl #1
  add r1, r1, #1
  strneh  r3, [r2, lr]  @ movhi
  cmp r9, r1
  mov r0, r0, lsr #8
  bne .L569
  b .L1118
.L1108:
  ldr r2, [r3, #0]
  ldr r4, .L1161+12
  mov r0, #0
.L1114:
  ands  r3, r2, #15
  orr r3, ip, r3
  mov r3, r3, asl #1
  ldrneh  r3, [r3, r4]
  mov r1, r0, asl #1
  add r0, r0, #1
  strneh  r3, [r1, lr]  @ movhi
  cmp r5, r0
  mov r2, r2, lsr #4
  bne .L1114
  b .L1118
.L874:
  cmp r5, #3
  ldrls r2, [ip, #0]
  bls .L905
  ldr r1, [ip, #0]
  cmp r1, #0
  beq .L895
  ands  r2, r1, #255
  ldrne r3, .L1161+12
  movne r2, r2, asl #1
  ldrneh  r2, [r2, r3]
  mov r3, r1, lsr #8
  strneh  r2, [lr, #0]  @ movhi
  ands  r2, r3, #255
  ldrne r3, .L1161+12
  movne r2, r2, asl #1
  ldrneh  r2, [r2, r3]
  mov r3, r1, lsr #16
  strneh  r2, [lr, #2]  @ movhi
  ands  r2, r3, #255
  ldrne r3, .L1161+12
  movne r2, r2, asl #1
  ldrneh  r2, [r2, r3]
  strneh  r2, [lr, #4]  @ movhi
  movs  r2, r1, lsr #24
  ldrne r3, .L1161+12
  movne r2, r2, asl #1
  ldrneh  r2, [r2, r3]
  strneh  r2, [lr, #6]  @ movhi
.L895:
  subs  r5, r5, #4
  ldr r2, [ip, #4]
  addne lr, lr, #8
  beq .L1118
.L905:
  mov r1, #0
.L906:
  ands  r3, r2, #255
  mov ip, r3, asl #1
  ldrne r3, .L1161+12
  mov r0, r1, asl #1
  ldrneh  ip, [ip, r3]
  add r1, r1, #1
  strneh  ip, [r0, lr]  @ movhi
  cmp r1, r5
  mov r2, r2, lsr #8
  bcc .L906
  b .L1118
.L991:
  ldr r2, [r3, #0]
  ldr r5, .L1161+12
  mov r0, #0
.L997:
  ands  r3, r2, #15
  orr r3, ip, r3
  mov r3, r3, asl #1
  ldrneh  r3, [r3, r5]
  mov r1, r0, asl #1
  add r0, r0, #1
  strneh  r3, [r1, lr]  @ movhi
  cmp r4, r0
  mov r2, r2, lsr #4
  bne .L997
  b .L1118
.L691:
  cmp r4, #3
  ldrls r2, [ip, #0]
  bls .L722
  ldr r1, [ip, #0]
  cmp r1, #0
  beq .L712
  ands  r2, r1, #255
  ldrne r3, .L1161+12
  movne r2, r2, asl #1
  ldrneh  r2, [r2, r3]
  mov r3, r1, lsr #8
  strneh  r2, [lr, #0]  @ movhi
  ands  r2, r3, #255
  ldrne r3, .L1161+12
  movne r2, r2, asl #1
  ldrneh  r2, [r2, r3]
  mov r3, r1, lsr #16
  strneh  r2, [lr, #2]  @ movhi
  ands  r2, r3, #255
  ldrne r3, .L1161+12
  movne r2, r2, asl #1
  ldrneh  r2, [r2, r3]
  strneh  r2, [lr, #4]  @ movhi
  movs  r2, r1, lsr #24
  ldrne r3, .L1161+12
  movne r2, r2, asl #1
  ldrneh  r2, [r2, r3]
  strneh  r2, [lr, #6]  @ movhi
.L712:
  subs  r4, r4, #4
  ldr r2, [ip, #4]
  addne lr, lr, #8
  beq .L1118
.L722:
  mov r1, #0
.L723:
  ands  r3, r2, #255
  mov ip, r3, asl #1
  ldrne r3, .L1161+12
  mov r0, r1, asl #1
  ldrneh  ip, [ip, r3]
  add r1, r1, #1
  strneh  ip, [r0, lr]  @ movhi
  cmp r4, r1
  mov r2, r2, lsr #8
  bhi .L723
  b .L1118
.L732:
  cmp r0, #3
  bhi .L1157
  subs  r4, r5, #4
  ldr r2, [r6, #0]
  beq .L767
  mov r3, r0, asl #3
  mov r0, r2, lsr r3
  ldr r7, .L1161+12
  mov r1, #0
.L769:
  ands  r3, r0, #255
  mov r3, r3, asl #1
  ldrneh  r3, [r3, r7]
  mov r2, r1, asl #1
  add r1, r1, #1
  strneh  r3, [r2, lr]  @ movhi
  cmp r4, r1
  mov r0, r0, lsr #8
  bne .L769
  add r3, lr, r5, asl #1
  sub lr, r3, #8
.L767:
  ldr r1, [r6, #4]
  cmp r1, #0
  beq .L774
  ands  r2, r1, #255
  ldrne r3, .L1161+12
  movne r2, r2, asl #1
  ldrneh  r2, [r2, r3]
  mov r3, r1, lsr #8
  strneh  r2, [lr, #0]  @ movhi
  ands  r2, r3, #255
  ldrne r3, .L1161+12
  movne r2, r2, asl #1
  ldrneh  r2, [r2, r3]
  mov r3, r1, lsr #16
  strneh  r2, [lr, #2]  @ movhi
  ands  r2, r3, #255
  ldrne r3, .L1161+12
  movne r2, r2, asl #1
  ldrneh  r2, [r2, r3]
  strneh  r2, [lr, #4]  @ movhi
  movs  r2, r1, lsr #24
  ldrne r3, .L1161+12
  movne r2, r2, asl #1
  ldrneh  r2, [r2, r3]
  strneh  r2, [lr, #6]  @ movhi
  b .L774
.L1006:
  cmp r6, #0
  ldr r2, [r3, #0]
  beq .L1008
  mov r3, r0, asl #2
  mov r0, r2, lsr r3
  ldr r5, .L1161+12
  mov r1, #0
.L1016:
  ands  r3, r0, #15
  orr r3, r7, r3
  mov r3, r3, asl #1
  ldrneh  r3, [r3, r5]
  mov r2, r1, asl #1
  add r1, r1, #1
  strneh  r3, [r2, lr]  @ movhi
  cmp r6, r1
  mov r0, r0, lsr #4
  bne .L1016
  add lr, lr, r6, asl #1
  b .L1008
.L914:
  ldrh  r1, [ip, #0]
  mov r2, r1, asl #22
  mov r3, r1, lsr #12
  mov r2, r2, lsr #22
  tst r1, #2048
  mov r5, r3, asl #4
  add r3, r8, r2, asl #5
  addne r3, r3, fp
  tst r1, #1024
  bne .L1158
  cmp r4, #0
  ldr r2, [r3, #0]
  beq .L934
  mov r3, r0, asl #2
  mov r0, r2, lsr r3
  ldr r6, .L1161+12
  mov r1, #0
.L942:
  ands  r3, r0, #15
  orr r3, r5, r3
  mov r3, r3, asl #1
  ldrneh  r3, [r3, r6]
  mov r2, r1, asl #1
  add r1, r1, #1
  strneh  r3, [r2, lr]  @ movhi
  cmp r4, r1
  mov r0, r0, lsr #4
  bne .L942
.L1133:
  add lr, lr, r4, asl #1
.L934:
  rsb r9, r4, r9
  add ip, ip, #2
  b .L912
.L533:
  ldrh  r2, [ip, #0]
  mov r3, r2, asl #22
  mov r3, r3, lsr #22
  tst r2, #2048
  add r5, r8, r3, asl #6
  addne r5, r5, fp
  ands  r2, r2, #1024
  bne .L1159
  cmp r0, #3
  bls .L621
  cmp r4, #0
  ldr r1, [r5, #4]
  beq .L598
  mov r3, r0, asl #3
  sub r3, r3, #32
  ldr r5, .L1161+12
  mov r0, r1, lsr r3
  mov r1, r2
.L624:
  ands  r3, r0, #255
  mov r3, r3, asl #1
  ldrneh  r3, [r3, r5]
  mov r2, r1, asl #1
  add r1, r1, #1
  strneh  r3, [r2, lr]  @ movhi
  cmp r4, r1
  mov r0, r0, lsr #8
  bne .L624
.L1120:
  add lr, lr, r4, asl #1
.L598:
  rsb r9, r4, r9
  add ip, ip, #2
  b .L531
.L1155:
  cmp r5, #0
  ldr r2, [r6, #0]
  beq .L736
  mov r3, r0, asl #3
  sub r3, r3, #32
  mov r0, r2, asl r3
  ldr r4, .L1161+12
  mov r1, #0
.L738:
  movs  r3, r0, lsr #24
  mov r3, r3, asl #1
  ldrneh  r3, [r3, r4]
  mov r2, r1, asl #1
  add r1, r1, #1
  strneh  r3, [r2, lr]  @ movhi
  cmp r5, r1
  mov r0, r0, asl #8
  bne .L738
  add lr, lr, r5, asl #1
.L1160:
  add ip, ip, #2
  b .L729
.L1154:
  cmp r9, #0
  ldr ip, [ip, #0]
  beq .L1118
  mov r3, r0, asl #2
  ldr r4, .L1161+12
  mov r0, ip, asl r3
  mov ip, #0
.L921:
  movs  r3, r0, lsr #28
  orr r3, r2, r3
  mov r3, r3, asl #1
  ldrneh  r3, [r3, r4]
  mov r1, ip, asl #1
  add ip, ip, #1
  strneh  r3, [r1, lr]  @ movhi
  cmp r9, ip
  mov r0, r0, asl #4
  bne .L921
  b .L1118
.L1159:
  cmp r0, #3
  bls .L596
  cmp r4, #0
  ldr r2, [r5, #0]
  beq .L598
  mov r3, r0, asl #3
  sub r3, r3, #32
  mov r0, r2, asl r3
  ldr r5, .L1161+12
  mov r1, #0
.L600:
  movs  r3, r0, lsr #24
  mov r3, r3, asl #1
  ldrneh  r3, [r3, r5]
  mov r2, r1, asl #1
  add r1, r1, #1
  strneh  r3, [r2, lr]  @ movhi
  cmp r4, r1
  mov r0, r0, asl #8
  bne .L600
  b .L1120
.L1157:
  cmp r5, #0
  ldr r1, [r6, #4]
  beq .L736
  mov r3, r0, asl #3
  sub r3, r3, #32
  ldr r4, .L1161+12
  mov r0, r1, lsr r3
  mov r1, r2
.L762:
  ands  r3, r0, #255
  mov r3, r3, asl #1
  ldrneh  r3, [r3, r4]
  mov r2, r1, asl #1
  add r1, r1, #1
  strneh  r3, [r2, lr]  @ movhi
  cmp r5, r1
  mov r0, r0, lsr #8
  bne .L762
  add lr, lr, r5, asl #1
  b .L1160
.L1156:
  cmp r0, #3
  bls .L539
  cmp r9, #0
  ldr r2, [ip, #0]
  beq .L1118
  mov r3, r0, asl #3
  sub r3, r3, #32
  mov r0, r2, asl r3
  ldr ip, .L1161+12
  mov r1, #0
.L543:
  movs  r3, r0, lsr #24
  mov r3, r3, asl #1
  ldrneh  r3, [r3, ip]
  mov r2, r1, asl #1
  add r1, r1, #1
  strneh  r3, [r2, lr]  @ movhi
  cmp r9, r1
  mov r0, r0, asl #8
  bne .L543
  b .L1118
.L1158:
  cmp r4, #0
  ldr r2, [r3, #0]
  beq .L934
  mov r3, r0, asl #2
  mov r0, r2, asl r3
  ldr r6, .L1161+12
  mov r1, #0
.L936:
  movs  r3, r0, lsr #28
  orr r3, r5, r3
  mov r3, r3, asl #1
  ldrneh  r3, [r3, r6]
  mov r2, r1, asl #1
  add r1, r1, #1
  strneh  r3, [r2, lr]  @ movhi
  cmp r4, r1
  mov r0, r0, asl #4
  bne .L936
  b .L1133
.L539:
  mov r3, r0, asl #3
  ldr r1, [ip, #4]
  add r2, r9, r0
  sub r3, r3, #32
  cmp r2, #4
  mov r1, r1, asl r3
  bhi .L547
  cmp r9, #0
  ldrne ip, .L1161+12
  movne r0, #0
  beq .L1118
.L562:
  movs  r3, r1, lsr #24
  mov r3, r3, asl #1
  ldrneh  r3, [r3, ip]
  mov r2, r0, asl #1
  add r0, r0, #1
  strneh  r3, [r2, lr]  @ movhi
  cmp r9, r0
  mov r1, r1, asl #8
  bne .L562
  b .L1118
.L596:
  subs  r6, r4, #4
  ldr r2, [r5, #4]
  beq .L605
  mov r3, r0, asl #3
  sub r3, r3, #32
  mov r0, r2, asl r3
  ldr r7, .L1161+12
  mov r1, #0
.L607:
  movs  r3, r0, lsr #24
  mov r3, r3, asl #1
  ldrneh  r3, [r3, r7]
  mov r2, r1, asl #1
  add r1, r1, #1
  strneh  r3, [r2, lr]  @ movhi
  cmp r6, r1
  mov r0, r0, asl #8
  bne .L607
  add r3, lr, r4, asl #1
  sub lr, r3, #8
.L605:
  ldr r1, [r5, #0]
  cmp r1, #0
  beq .L636
  ands  r2, r1, #255
  ldrne r3, .L1161+12
  movne r2, r2, asl #1
  ldrneh  r2, [r2, r3]
  mov r3, r1, lsr #8
  strneh  r2, [lr, #6]  @ movhi
  ands  r2, r3, #255
  ldrne r3, .L1161+12
  movne r2, r2, asl #1
  ldrneh  r2, [r2, r3]
  mov r3, r1, lsr #16
  strneh  r2, [lr, #4]  @ movhi
  ands  r2, r3, #255
  ldrne r3, .L1161+12
  movne r2, r2, asl #1
  ldrneh  r2, [r2, r3]
  strneh  r2, [lr, #2]  @ movhi
  movs  r2, r1, lsr #24
  ldrne r3, .L1161+12
  movne r2, r2, asl #1
  ldrneh  r2, [r2, r3]
  strneh  r2, [lr, #0]  @ movhi
.L636:
  add lr, lr, #8
  b .L598
.L566:
  add r2, r9, r0
  ldr r3, [ip, #0]
  cmp r2, #4
  mov r1, r0, asl #3
  mov r2, r3, lsr r1
  bhi .L573
  cmp r9, #0
  ldrne ip, .L1161+12
  movne r0, #0
  beq .L1118
.L588:
  ands  r3, r2, #255
  mov r3, r3, asl #1
  ldrneh  r3, [r3, ip]
  mov r1, r0, asl #1
  add r0, r0, #1
  strneh  r3, [r1, lr]  @ movhi
  cmp r9, r0
  mov r2, r2, lsr #8
  bne .L588
  b .L1118
.L621:
  subs  r6, r4, #4
  ldr r2, [r5, #0]
  beq .L629
  mov r3, r0, asl #3
  mov r0, r2, lsr r3
  ldr r7, .L1161+12
  mov r1, #0
.L631:
  ands  r3, r0, #255
  mov r3, r3, asl #1
  ldrneh  r3, [r3, r7]
  mov r2, r1, asl #1
  add r1, r1, #1
  strneh  r3, [r2, lr]  @ movhi
  cmp r6, r1
  mov r0, r0, lsr #8
  bne .L631
  add r3, lr, r4, asl #1
  sub lr, r3, #8
.L629:
  ldr r1, [r5, #4]
  cmp r1, #0
  beq .L636
  ands  r2, r1, #255
  ldrne r3, .L1161+12
  movne r2, r2, asl #1
  ldrneh  r2, [r2, r3]
  mov r3, r1, lsr #8
  strneh  r2, [lr, #0]  @ movhi
  ands  r2, r3, #255
  ldrne r3, .L1161+12
  movne r2, r2, asl #1
  ldrneh  r2, [r2, r3]
  mov r3, r1, lsr #16
  strneh  r2, [lr, #2]  @ movhi
  ands  r2, r3, #255
  ldrne r3, .L1161+12
  movne r2, r2, asl #1
  ldrneh  r2, [r2, r3]
  strneh  r2, [lr, #4]  @ movhi
  movs  r2, r1, lsr #24
  ldrne r3, .L1161+12
  movne r2, r2, asl #1
  ldrneh  r2, [r2, r3]
  strneh  r2, [lr, #6]  @ movhi
  add lr, lr, #8
  b .L598
.L547:
  rsbs  r4, r0, #4
  beq .L550
  ldr r5, .L1161+12
  mov r0, #0
.L552:
  movs  r3, r1, lsr #24
  mov r3, r3, asl #1
  ldrneh  r3, [r3, r5]
  mov r2, r0, asl #1
  add r0, r0, #1
  strneh  r3, [r2, lr]  @ movhi
  cmp r4, r0
  mov r1, r1, asl #8
  bne .L552
  add lr, lr, r4, asl #1
.L550:
  subs  r4, r9, r4
  ldr r2, [ip, #0]
  beq .L1118
  ldr ip, .L1161+12
  mov r0, #0
.L558:
  movs  r3, r2, lsr #24
  mov r3, r3, asl #1
  ldrneh  r3, [r3, ip]
  mov r1, r0, asl #1
  add r0, r0, #1
  strneh  r3, [r1, lr]  @ movhi
  cmp r4, r0
  mov r2, r2, asl #8
  bne .L558
  b .L1118
.L573:
  rsbs  r4, r0, #4
  beq .L576
  ldr r5, .L1161+12
  mov r0, #0
.L578:
  ands  r3, r2, #255
  mov r3, r3, asl #1
  ldrneh  r3, [r3, r5]
  mov r1, r0, asl #1
  add r0, r0, #1
  strneh  r3, [r1, lr]  @ movhi
  cmp r4, r0
  mov r2, r2, lsr #8
  bne .L578
  add lr, lr, r4, asl #1
.L576:
  subs  r4, r9, r4
  ldr r2, [ip, #4]
  beq .L1118
  ldr ip, .L1161+12
  mov r0, #0
.L584:
  ands  r3, r2, #255
  mov r3, r3, asl #1
  ldrneh  r3, [r3, ip]
  mov r1, r0, asl #1
  add r0, r0, #1
  strneh  r3, [r1, lr]  @ movhi
  cmp r4, r0
  mov r2, r2, lsr #8
  bne .L584
  b .L1118
  .size render_scanline_text_transparent_normal, .-render_scanline_text_transparent_normal
  .align  2
  .global render_scanline_text_base_color16
  .type render_scanline_text_base_color16, %function
render_scanline_text_base_color16:
  @ args = 0, pretend = 0, frame = 16
  @ frame_needed = 0, uses_anonymous_args = 0
  ldr ip, .L1954
  stmfd sp!, {r4, r5, r6, r7, r8, r9, sl, fp, lr}
  ldrh  r5, [ip, #80]
  add r7, r0, #7
  mov r8, r5, asr r0
  mov r7, r5, asr r7
  add r6, ip, r0, asl #2
  ldrh  r4, [ip, #6]
  ldrh  lr, [r6, #18]
  add ip, ip, r0, asl #1
  add fp, r4, lr
  ldrh  r9, [ip, #8]
  mov sl, fp, asl #23
  rsb r2, r1, r2
  sub sp, sp, #16
  mov sl, sl, lsr #23
  cmp sl, #255
  movls r4, #0
  movhi r4, #1
  ldrh  lr, [r6, #16]
  str r2, [sp, #12]
  mov r6, r9, lsr #14
  ldr r2, .L1954+4
  ands  r4, r4, r6, lsr #1
  and r7, r7, #2
  and r8, r8, #1
  add lr, lr, r1
  orr r8, r8, r7
  mov ip, r9, asl #3
  add r7, r3, r1, asl #1
  ldr r2, [r2, r6, asl #2]
  subne r3, sl, #256
  ldr r1, .L1954+8
  movne r3, r3, lsr #3
  moveq r3, fp, asl #3
  and ip, ip, #63488
  addne r3, r3, r2, lsr #3
  andeq r3, r3, #1984
  add ip, ip, r1
  mov lr, lr, asl #23
  addne r4, ip, r3, asl #6
  addeq r4, ip, r3
  mov r0, r5, lsr #12
  tst r6, #1
  mov lr, lr, lsr #23
  and r0, r0, #2
  mov r5, r5, asl #26
  andeq lr, lr, #255
  orr r0, r0, r5, lsr #31
  moveq r3, lr, lsr #3
  mov r0, r0, asl #9
  mov r8, r8, asl #9
  addeq fp, r4, r3, asl #1
  streq r4, [sp, #0]
  beq .L1171
  cmp lr, #255
  subhi lr, lr, #256
  movhi r3, lr, lsr #3
  movls r3, lr, lsr #3
  addhi r3, r4, r3, asl #1
  addls fp, r4, r3, asl #1
  addls r4, r4, #2048
  addhi fp, r3, #2048
  strhi r4, [sp, #0]
  strls r4, [sp, #0]
.L1171:
  tst r9, #128
  beq .L1172
  mov r2, r9, asl #12
  and r3, sl, #7
  and r1, lr, #255
  mov r3, r3, asl #3
  and r2, r2, #49152
  ldr r4, [sp, #12]
  rsb r9, r1, #256
  add r2, r2, r3
  ldr r1, .L1954+8
  mov r3, r3, asl #1
  rsb r3, r3, #56
  cmp r4, r9
  add r2, r2, r1
  str r3, [sp, #4]
  and lr, lr, #7
  bls .L1925
  cmp lr, #0
  moveq r6, lr
  bne .L1926
.L1412:
  rsb r3, r6, r9
  movs  sl, r3, lsr #3
  beq .L1476
  mov lr, r7
  mov r6, #0
  b .L1478
.L1927:
  ldr r1, [r5, #4]
  add r6, r6, #1
  ands  r3, r1, #255
  orrne r3, r3, r8
  strneh  r3, [lr, #6]  @ movhi
  mov r3, r1, lsr #8
  streqh  r0, [lr, #6]  @ movhi
  ands  r3, r3, #255
  orrne r3, r3, r8
  strneh  r3, [lr, #4]  @ movhi
  mov r3, r1, lsr #16
  streqh  r0, [lr, #4]  @ movhi
  ands  r3, r3, #255
  orrne r3, r3, r8
  strneh  r3, [lr, #2]  @ movhi
  streqh  r0, [lr, #2]  @ movhi
  movs  r3, r1, lsr #24
  ldr r1, [r5, #0]
  orrne r3, r3, r8
  strneh  r3, [lr, #0]  @ movhi
  streqh  r0, [lr, #0]  @ movhi
  ands  r3, r1, #255
  orrne r3, r3, r8
  strneh  r3, [lr, #14] @ movhi
  mov r3, r1, lsr #8
  streqh  r0, [lr, #14] @ movhi
  ands  r3, r3, #255
  orrne r3, r3, r8
  strneh  r3, [lr, #12] @ movhi
  mov r3, r1, lsr #16
  streqh  r0, [lr, #12] @ movhi
  ands  r3, r3, #255
  orrne r3, r3, r8
  strneh  r3, [lr, #10] @ movhi
  streqh  r0, [lr, #10] @ movhi
  movs  r3, r1, lsr #24
  orrne r3, r3, r8
  strneh  r3, [lr, #8]  @ movhi
  streqh  r0, [lr, #8]  @ movhi
  cmp sl, r6
  add lr, lr, #16
  beq .L1530
.L1928:
  add fp, fp, #2
.L1478:
  ldrh  r1, [fp, #0]
  mov r3, r1, asl #22
  mov r3, r3, lsr #22
  tst r1, #2048
  add r5, r2, r3, asl #6
  ldrne r3, [sp, #4]
  addne r5, r5, r3
  tst r1, #1024
  bne .L1927
  ldr r1, [r5, #0]
  add r6, r6, #1
  ands  r3, r1, #255
  orrne r3, r3, r8
  strneh  r3, [lr, #0]  @ movhi
  mov r3, r1, lsr #8
  streqh  r0, [lr, #0]  @ movhi
  ands  r3, r3, #255
  orrne r3, r3, r8
  strneh  r3, [lr, #2]  @ movhi
  mov r3, r1, lsr #16
  streqh  r0, [lr, #2]  @ movhi
  ands  r3, r3, #255
  orrne r3, r3, r8
  strneh  r3, [lr, #4]  @ movhi
  streqh  r0, [lr, #4]  @ movhi
  movs  r3, r1, lsr #24
  ldr r1, [r5, #4]
  orrne r3, r3, r8
  strneh  r3, [lr, #6]  @ movhi
  streqh  r0, [lr, #6]  @ movhi
  ands  r3, r1, #255
  orrne r3, r3, r8
  strneh  r3, [lr, #8]  @ movhi
  mov r3, r1, lsr #8
  streqh  r0, [lr, #8]  @ movhi
  ands  r3, r3, #255
  orrne r3, r3, r8
  strneh  r3, [lr, #10] @ movhi
  mov r3, r1, lsr #16
  streqh  r0, [lr, #10] @ movhi
  ands  r3, r3, #255
  orrne r3, r3, r8
  strneh  r3, [lr, #12] @ movhi
  streqh  r0, [lr, #12] @ movhi
  movs  r3, r1, lsr #24
  orrne r3, r3, r8
  strneh  r3, [lr, #14] @ movhi
  streqh  r0, [lr, #14] @ movhi
  cmp sl, r6
  add lr, lr, #16
  bne .L1928
.L1530:
  add r7, r7, sl, asl #4
.L1476:
  ldr r4, [sp, #12]
  rsb r9, r9, r4
  movs  r4, r9, lsr #3
  ldreq r3, [sp, #0]
  beq .L1534
  ldr r6, [sp, #0]
  mov lr, r7
  mov sl, #0
  b .L1535
.L1930:
  ldr r1, [r5, #4]
  add sl, sl, #1
  ands  r3, r1, #255
  orrne r3, r3, r8
  strneh  r3, [lr, #6]  @ movhi
  mov r3, r1, lsr #8
  streqh  r0, [lr, #6]  @ movhi
  ands  r3, r3, #255
  orrne r3, r3, r8
  strneh  r3, [lr, #4]  @ movhi
  mov r3, r1, lsr #16
  streqh  r0, [lr, #4]  @ movhi
  ands  r3, r3, #255
  orrne r3, r3, r8
  strneh  r3, [lr, #2]  @ movhi
  streqh  r0, [lr, #2]  @ movhi
  movs  r3, r1, lsr #24
  ldr r1, [r5, #0]
  orrne r3, r3, r8
  strneh  r3, [lr, #0]  @ movhi
  streqh  r0, [lr, #0]  @ movhi
  ands  r3, r1, #255
  orrne r3, r3, r8
  strneh  r3, [lr, #14] @ movhi
  mov r3, r1, lsr #8
  streqh  r0, [lr, #14] @ movhi
  ands  r3, r3, #255
  orrne r3, r3, r8
  strneh  r3, [lr, #12] @ movhi
  mov r3, r1, lsr #16
  streqh  r0, [lr, #12] @ movhi
  ands  r3, r3, #255
  orrne r3, r3, r8
  strneh  r3, [lr, #10] @ movhi
  streqh  r0, [lr, #10] @ movhi
  movs  r3, r1, lsr #24
  orrne r3, r3, r8
  strneh  r3, [lr, #8]  @ movhi
  streqh  r0, [lr, #8]  @ movhi
  cmp r4, sl
  add lr, lr, #16
  add r6, r6, #2
  beq .L1929
.L1535:
  ldrh  r1, [r6, #0]
  mov r3, r1, asl #22
  mov r3, r3, lsr #22
  tst r1, #2048
  add r5, r2, r3, asl #6
  ldrne r3, [sp, #4]
  addne r5, r5, r3
  tst r1, #1024
  bne .L1930
  ldr r1, [r5, #0]
  add sl, sl, #1
  ands  r3, r1, #255
  orrne r3, r3, r8
  strneh  r3, [lr, #0]  @ movhi
  mov r3, r1, lsr #8
  streqh  r0, [lr, #0]  @ movhi
  ands  r3, r3, #255
  orrne r3, r3, r8
  strneh  r3, [lr, #2]  @ movhi
  mov r3, r1, lsr #16
  streqh  r0, [lr, #2]  @ movhi
  ands  r3, r3, #255
  orrne r3, r3, r8
  strneh  r3, [lr, #4]  @ movhi
  streqh  r0, [lr, #4]  @ movhi
  movs  r3, r1, lsr #24
  ldr r1, [r5, #4]
  orrne r3, r3, r8
  strneh  r3, [lr, #6]  @ movhi
  streqh  r0, [lr, #6]  @ movhi
  ands  r3, r1, #255
  orrne r3, r3, r8
  strneh  r3, [lr, #8]  @ movhi
  mov r3, r1, lsr #8
  streqh  r0, [lr, #8]  @ movhi
  ands  r3, r3, #255
  orrne r3, r3, r8
  strneh  r3, [lr, #10] @ movhi
  mov r3, r1, lsr #16
  streqh  r0, [lr, #10] @ movhi
  ands  r3, r3, #255
  orrne r3, r3, r8
  strneh  r3, [lr, #12] @ movhi
  streqh  r0, [lr, #12] @ movhi
  movs  r3, r1, lsr #24
  orrne r3, r3, r8
  strneh  r3, [lr, #14] @ movhi
  streqh  r0, [lr, #14] @ movhi
  cmp r4, sl
  add lr, lr, #16
  add r6, r6, #2
  bne .L1535
.L1929:
  ldr r1, [sp, #0]
  add r7, r7, r4, asl #4
  add r3, r1, r4, asl #1
.L1534:
  ands  lr, r9, #7
  beq .L1907
  ldrh  r4, [r3, #0]
  mov r3, r4, asl #22
  mov r3, r3, lsr #22
  tst r4, #2048
  add r2, r2, r3, asl #6
  ldrne r3, [sp, #4]
  addne r2, r2, r3
  tst r4, #1024
  beq .L1591
  cmp lr, #3
  ldrls r2, [r2, #4]
  bhi .L1931
.L1608:
  mov r1, #0
.L1609:
  movs  r3, r2, lsr #24
  orr r3, r3, r8
  add r1, r1, #1
  strneh  r3, [r7, #0]  @ movhi
  streqh  r0, [r7, #0]  @ movhi
  cmp lr, r1
  mov r2, r2, asl #8
  add r7, r7, #2
  bhi .L1609
.L1907:
  add sp, sp, #16
  ldmfd sp!, {r4, r5, r6, r7, r8, r9, sl, fp, pc}
.L1172:
  and r1, lr, #255
  rsb r4, r1, #256
  and r3, sl, #7
  ldr r1, [sp, #12]
  mov r2, r9, asl #12
  mov r3, r3, asl #2
  and r2, r2, #49152
  add r2, r2, r3
  cmp r1, r4
  mov r3, r3, asl #1
  ldr r1, .L1954+8
  rsb r3, r3, #28
  add ip, r2, r1
  str r3, [sp, #8]
  and r1, lr, #7
  bls .L1932
  cmp r1, #0
  moveq r6, r1
  bne .L1933
.L1752:
  rsb r3, r6, r4
  movs  r9, r3, lsr #3
  beq .L1772
  mov r3, r0, asl #16
  mov r5, r3, lsr #16
  mov lr, r7
  mov sl, #0
  b .L1774
.L1934:
  ldr r2, [r3, #0]
  cmp r2, #0
  beq .L1805
  ands  r3, r2, #15
  orrne r3, r6, r3
  orrne r3, r3, r8
  strneh  r3, [lr, #14] @ movhi
  mov r3, r2, lsr #4
  streqh  r0, [lr, #14] @ movhi
  ands  r3, r3, #15
  orrne r3, r6, r3
  orrne r3, r3, r8
  strneh  r3, [lr, #12] @ movhi
  mov r3, r2, lsr #8
  streqh  r0, [lr, #12] @ movhi
  ands  r3, r3, #15
  orrne r3, r6, r3
  orrne r3, r3, r8
  strneh  r3, [lr, #10] @ movhi
  mov r3, r2, lsr #12
  streqh  r0, [lr, #10] @ movhi
  ands  r3, r3, #15
  orrne r3, r6, r3
  orrne r3, r3, r8
  strneh  r3, [lr, #8]  @ movhi
  mov r3, r2, lsr #16
  streqh  r0, [lr, #8]  @ movhi
  ands  r3, r3, #15
  orrne r3, r6, r3
  orrne r3, r3, r8
  strneh  r3, [lr, #6]  @ movhi
  mov r3, r2, lsr #20
  streqh  r0, [lr, #6]  @ movhi
  ands  r3, r3, #15
  orrne r3, r6, r3
  orrne r3, r3, r8
  strneh  r3, [lr, #4]  @ movhi
  mov r3, r2, lsr #24
  streqh  r0, [lr, #4]  @ movhi
  ands  r3, r3, #15
  orrne r3, r6, r3
  orrne r3, r3, r8
  strneh  r3, [lr, #2]  @ movhi
  streqh  r0, [lr, #2]  @ movhi
  movs  r3, r2, lsr #28
  orrne r3, r6, r3
  orrne r3, r3, r8
  strneh  r3, [lr, #0]  @ movhi
  streqh  r0, [lr, #0]  @ movhi
.L1804:
  add sl, sl, #1
  cmp r9, sl
  add lr, lr, #16
  beq .L1830
.L1935:
  add fp, fp, #2
.L1774:
  ldrh  r1, [fp, #0]
  mov r2, r1, asl #22
  mov r2, r2, lsr #22
  tst r1, #2048
  mov r3, r1, lsr #12
  mov r6, r3, asl #4
  add r3, ip, r2, asl #5
  ldrne r2, [sp, #8]
  addne r3, r3, r2
  tst r1, #1024
  bne .L1934
  ldr r2, [r3, #0]
  cmp r2, #0
  beq .L1805
  ands  r3, r2, #15
  orrne r3, r6, r3
  orrne r3, r3, r8
  strneh  r3, [lr, #0]  @ movhi
  mov r3, r2, lsr #4
  streqh  r0, [lr, #0]  @ movhi
  ands  r3, r3, #15
  orrne r3, r6, r3
  orrne r3, r3, r8
  strneh  r3, [lr, #2]  @ movhi
  mov r3, r2, lsr #8
  streqh  r0, [lr, #2]  @ movhi
  ands  r3, r3, #15
  orrne r3, r6, r3
  orrne r3, r3, r8
  strneh  r3, [lr, #4]  @ movhi
  mov r3, r2, lsr #12
  streqh  r0, [lr, #4]  @ movhi
  ands  r3, r3, #15
  orrne r3, r6, r3
  orrne r3, r3, r8
  strneh  r3, [lr, #6]  @ movhi
  mov r3, r2, lsr #16
  streqh  r0, [lr, #6]  @ movhi
  ands  r3, r3, #15
  orrne r3, r6, r3
  orrne r3, r3, r8
  strneh  r3, [lr, #8]  @ movhi
  mov r3, r2, lsr #20
  streqh  r0, [lr, #8]  @ movhi
  ands  r3, r3, #15
  orrne r3, r6, r3
  orrne r3, r3, r8
  strneh  r3, [lr, #10] @ movhi
  mov r3, r2, lsr #24
  streqh  r0, [lr, #10] @ movhi
  ands  r3, r3, #15
  orrne r3, r6, r3
  orrne r3, r3, r8
  strneh  r3, [lr, #12] @ movhi
  streqh  r0, [lr, #12] @ movhi
  movs  r3, r2, lsr #28
  orrne r3, r6, r3
  orrne r3, r3, r8
  add sl, sl, #1
  strneh  r3, [lr, #14] @ movhi
  streqh  r0, [lr, #14] @ movhi
  cmp r9, sl
  add lr, lr, #16
  bne .L1935
.L1830:
  add r7, r7, r9, asl #4
.L1772:
  ldr r3, [sp, #12]
  rsb fp, r4, r3
  movs  r4, fp, lsr #3
  ldreq r2, [sp, #0]
  beq .L1834
  mov r3, r0, asl #16
  ldr sl, [sp, #0]
  mov r5, r3, lsr #16
  mov lr, r7
  mov r9, #0
  b .L1835
.L1937:
  ldr r2, [r3, #0]
  cmp r2, #0
  beq .L1866
  ands  r3, r2, #15
  orrne r3, r6, r3
  orrne r3, r3, r8
  strneh  r3, [lr, #14] @ movhi
  mov r3, r2, lsr #4
  streqh  r0, [lr, #14] @ movhi
  ands  r3, r3, #15
  orrne r3, r6, r3
  orrne r3, r3, r8
  strneh  r3, [lr, #12] @ movhi
  mov r3, r2, lsr #8
  streqh  r0, [lr, #12] @ movhi
  ands  r3, r3, #15
  orrne r3, r6, r3
  orrne r3, r3, r8
  strneh  r3, [lr, #10] @ movhi
  mov r3, r2, lsr #12
  streqh  r0, [lr, #10] @ movhi
  ands  r3, r3, #15
  orrne r3, r6, r3
  orrne r3, r3, r8
  strneh  r3, [lr, #8]  @ movhi
  mov r3, r2, lsr #16
  streqh  r0, [lr, #8]  @ movhi
  ands  r3, r3, #15
  orrne r3, r6, r3
  orrne r3, r3, r8
  strneh  r3, [lr, #6]  @ movhi
  mov r3, r2, lsr #20
  streqh  r0, [lr, #6]  @ movhi
  ands  r3, r3, #15
  orrne r3, r6, r3
  orrne r3, r3, r8
  strneh  r3, [lr, #4]  @ movhi
  mov r3, r2, lsr #24
  streqh  r0, [lr, #4]  @ movhi
  ands  r3, r3, #15
  orrne r3, r6, r3
  orrne r3, r3, r8
  strneh  r3, [lr, #2]  @ movhi
  streqh  r0, [lr, #2]  @ movhi
  movs  r3, r2, lsr #28
  orrne r3, r6, r3
  orrne r3, r3, r8
  strneh  r3, [lr, #0]  @ movhi
  streqh  r0, [lr, #0]  @ movhi
.L1865:
  add r9, r9, #1
  cmp r4, r9
  add lr, lr, #16
  add sl, sl, #2
  beq .L1936
.L1835:
  ldrh  r1, [sl, #0]
  mov r2, r1, asl #22
  mov r2, r2, lsr #22
  tst r1, #2048
  mov r3, r1, lsr #12
  mov r6, r3, asl #4
  add r3, ip, r2, asl #5
  ldrne r2, [sp, #8]
  addne r3, r3, r2
  tst r1, #1024
  bne .L1937
  ldr r2, [r3, #0]
  cmp r2, #0
  beq .L1866
  ands  r3, r2, #15
  orrne r3, r6, r3
  orrne r3, r3, r8
  strneh  r3, [lr, #0]  @ movhi
  mov r3, r2, lsr #4
  streqh  r0, [lr, #0]  @ movhi
  ands  r3, r3, #15
  orrne r3, r6, r3
  orrne r3, r3, r8
  strneh  r3, [lr, #2]  @ movhi
  mov r3, r2, lsr #8
  streqh  r0, [lr, #2]  @ movhi
  ands  r3, r3, #15
  orrne r3, r6, r3
  orrne r3, r3, r8
  strneh  r3, [lr, #4]  @ movhi
  mov r3, r2, lsr #12
  streqh  r0, [lr, #4]  @ movhi
  ands  r3, r3, #15
  orrne r3, r6, r3
  orrne r3, r3, r8
  strneh  r3, [lr, #6]  @ movhi
  mov r3, r2, lsr #16
  streqh  r0, [lr, #6]  @ movhi
  ands  r3, r3, #15
  orrne r3, r6, r3
  orrne r3, r3, r8
  strneh  r3, [lr, #8]  @ movhi
  mov r3, r2, lsr #20
  streqh  r0, [lr, #8]  @ movhi
  ands  r3, r3, #15
  orrne r3, r6, r3
  orrne r3, r3, r8
  strneh  r3, [lr, #10] @ movhi
  mov r3, r2, lsr #24
  streqh  r0, [lr, #10] @ movhi
  ands  r3, r3, #15
  orrne r3, r6, r3
  orrne r3, r3, r8
  strneh  r3, [lr, #12] @ movhi
  streqh  r0, [lr, #12] @ movhi
  movs  r3, r2, lsr #28
  orrne r3, r6, r3
  orrne r3, r3, r8
  add r9, r9, #1
  strneh  r3, [lr, #14] @ movhi
  streqh  r0, [lr, #14] @ movhi
  cmp r4, r9
  add lr, lr, #16
  add sl, sl, #2
  bne .L1835
.L1936:
  ldr r3, [sp, #0]
  add r7, r7, r4, asl #4
  add r2, r3, r4, asl #1
.L1834:
  ands  lr, fp, #7
  beq .L1907
  ldrh  r4, [r2, #0]
  tst r4, #2048
  mov r3, r4, asl #22
  ldrne r1, [sp, #8]
  mov r3, r3, lsr #22
  add r3, ip, r3, asl #5
  addne r3, r3, r1
  mov r2, r4, lsr #12
  tst r4, #1024
  mov ip, r2, asl #4
  moveq r1, #0
  ldreq r2, [r3, #0]
  beq .L1902
  ldr r2, [r3, #0]
  mov r1, #0
.L1897:
  movs  r3, r2, lsr #28
  orr r3, ip, r3
  orr r3, r3, r8
  add r1, r1, #1
  strneh  r3, [r7, #0]  @ movhi
  streqh  r0, [r7, #0]  @ movhi
  cmp lr, r1
  mov r2, r2, asl #4
  add r7, r7, #2
  bne .L1897
  b .L1907
.L1932:
  cmp r1, #0
  bne .L1938
.L1637:
  ldr r1, [sp, #12]
  movs  r4, r1, lsr #3
  beq .L1676
  mov r3, r0, asl #16
  mov r5, r3, lsr #16
  mov lr, r7
  mov sl, fp
  mov r9, #0
  b .L1678
.L1940:
  ldr r2, [r3, #0]
  cmp r2, #0
  beq .L1709
  ands  r3, r2, #15
  orrne r3, r6, r3
  orrne r3, r3, r8
  strneh  r3, [lr, #14] @ movhi
  mov r3, r2, lsr #4
  streqh  r0, [lr, #14] @ movhi
  ands  r3, r3, #15
  orrne r3, r6, r3
  orrne r3, r3, r8
  strneh  r3, [lr, #12] @ movhi
  mov r3, r2, lsr #8
  streqh  r0, [lr, #12] @ movhi
  ands  r3, r3, #15
  orrne r3, r6, r3
  orrne r3, r3, r8
  strneh  r3, [lr, #10] @ movhi
  mov r3, r2, lsr #12
  streqh  r0, [lr, #10] @ movhi
  ands  r3, r3, #15
  orrne r3, r6, r3
  orrne r3, r3, r8
  strneh  r3, [lr, #8]  @ movhi
  mov r3, r2, lsr #16
  streqh  r0, [lr, #8]  @ movhi
  ands  r3, r3, #15
  orrne r3, r6, r3
  orrne r3, r3, r8
  strneh  r3, [lr, #6]  @ movhi
  mov r3, r2, lsr #20
  streqh  r0, [lr, #6]  @ movhi
  ands  r3, r3, #15
  orrne r3, r6, r3
  orrne r3, r3, r8
  strneh  r3, [lr, #4]  @ movhi
  mov r3, r2, lsr #24
  streqh  r0, [lr, #4]  @ movhi
  ands  r3, r3, #15
  orrne r3, r6, r3
  orrne r3, r3, r8
  strneh  r3, [lr, #2]  @ movhi
  streqh  r0, [lr, #2]  @ movhi
  movs  r3, r2, lsr #28
  orrne r3, r6, r3
  orrne r3, r3, r8
  strneh  r3, [lr, #0]  @ movhi
  streqh  r0, [lr, #0]  @ movhi
.L1708:
  add r9, r9, #1
  cmp r4, r9
  add lr, lr, #16
  add sl, sl, #2
  beq .L1939
.L1678:
  ldrh  r1, [sl, #0]
  mov r2, r1, asl #22
  mov r2, r2, lsr #22
  tst r1, #2048
  mov r3, r1, lsr #12
  mov r6, r3, asl #4
  add r3, ip, r2, asl #5
  ldrne r2, [sp, #8]
  addne r3, r3, r2
  tst r1, #1024
  bne .L1940
  ldr r2, [r3, #0]
  cmp r2, #0
  beq .L1709
  ands  r3, r2, #15
  orrne r3, r6, r3
  orrne r3, r3, r8
  strneh  r3, [lr, #0]  @ movhi
  mov r3, r2, lsr #4
  streqh  r0, [lr, #0]  @ movhi
  ands  r3, r3, #15
  orrne r3, r6, r3
  orrne r3, r3, r8
  strneh  r3, [lr, #2]  @ movhi
  mov r3, r2, lsr #8
  streqh  r0, [lr, #2]  @ movhi
  ands  r3, r3, #15
  orrne r3, r6, r3
  orrne r3, r3, r8
  strneh  r3, [lr, #4]  @ movhi
  mov r3, r2, lsr #12
  streqh  r0, [lr, #4]  @ movhi
  ands  r3, r3, #15
  orrne r3, r6, r3
  orrne r3, r3, r8
  strneh  r3, [lr, #6]  @ movhi
  mov r3, r2, lsr #16
  streqh  r0, [lr, #6]  @ movhi
  ands  r3, r3, #15
  orrne r3, r6, r3
  orrne r3, r3, r8
  strneh  r3, [lr, #8]  @ movhi
  mov r3, r2, lsr #20
  streqh  r0, [lr, #8]  @ movhi
  ands  r3, r3, #15
  orrne r3, r6, r3
  orrne r3, r3, r8
  strneh  r3, [lr, #10] @ movhi
  mov r3, r2, lsr #24
  streqh  r0, [lr, #10] @ movhi
  ands  r3, r3, #15
  orrne r3, r6, r3
  orrne r3, r3, r8
  strneh  r3, [lr, #12] @ movhi
  streqh  r0, [lr, #12] @ movhi
  movs  r3, r2, lsr #28
  orrne r3, r6, r3
  orrne r3, r3, r8
  add r9, r9, #1
  strneh  r3, [lr, #14] @ movhi
  streqh  r0, [lr, #14] @ movhi
  cmp r4, r9
  add lr, lr, #16
  add sl, sl, #2
  bne .L1678
.L1939:
  add r7, r7, r4, asl #4
  add fp, fp, r4, asl #1
.L1676:
  ldr r3, [sp, #12]
  ands  lr, r3, #7
  beq .L1907
  ldrh  r1, [fp, #0]
  tst r1, #2048
  mov r3, r1, asl #22
  ldrne r4, [sp, #8]
  mov r3, r3, lsr #22
  add r3, ip, r3, asl #5
  mov r2, r1, lsr #12
  addne r3, r3, r4
  tst r1, #1024
  mov ip, r2, asl #4
  moveq r1, #0
  ldreq r2, [r3, #0]
  beq .L1745
  ldr r2, [r3, #0]
  mov r1, #0
.L1740:
  movs  r3, r2, lsr #28
  orr r3, ip, r3
  orr r3, r3, r8
  add r1, r1, #1
  strneh  r3, [r7, #0]  @ movhi
  streqh  r0, [r7, #0]  @ movhi
  cmp lr, r1
  mov r2, r2, asl #4
  add r7, r7, #2
  bne .L1740
  b .L1907
.L1925:
  cmp lr, #0
  bne .L1941
.L1176:
  ldr r3, [sp, #12]
  movs  r9, r3, lsr #3
  beq .L1308
  mov lr, r7
  mov r6, fp
  mov sl, #0
  b .L1310
.L1943:
  ldr r1, [r5, #4]
  add sl, sl, #1
  ands  r3, r1, #255
  orrne r3, r3, r8
  strneh  r3, [lr, #6]  @ movhi
  mov r3, r1, lsr #8
  streqh  r0, [lr, #6]  @ movhi
  ands  r3, r3, #255
  orrne r3, r3, r8
  strneh  r3, [lr, #4]  @ movhi
  mov r3, r1, lsr #16
  streqh  r0, [lr, #4]  @ movhi
  ands  r3, r3, #255
  orrne r3, r3, r8
  strneh  r3, [lr, #2]  @ movhi
  streqh  r0, [lr, #2]  @ movhi
  movs  r3, r1, lsr #24
  ldr r1, [r5, #0]
  orrne r3, r3, r8
  strneh  r3, [lr, #0]  @ movhi
  streqh  r0, [lr, #0]  @ movhi
  ands  r3, r1, #255
  orrne r3, r3, r8
  strneh  r3, [lr, #14] @ movhi
  mov r3, r1, lsr #8
  streqh  r0, [lr, #14] @ movhi
  ands  r3, r3, #255
  orrne r3, r3, r8
  strneh  r3, [lr, #12] @ movhi
  mov r3, r1, lsr #16
  streqh  r0, [lr, #12] @ movhi
  ands  r3, r3, #255
  orrne r3, r3, r8
  strneh  r3, [lr, #10] @ movhi
  streqh  r0, [lr, #10] @ movhi
  movs  r3, r1, lsr #24
  orrne r3, r3, r8
  strneh  r3, [lr, #8]  @ movhi
  streqh  r0, [lr, #8]  @ movhi
  cmp r9, sl
  add lr, lr, #16
  add r6, r6, #2
  beq .L1942
.L1310:
  ldrh  r1, [r6, #0]
  tst r1, #2048
  mov r3, r1, asl #22
  ldrne r4, [sp, #4]
  mov r3, r3, lsr #22
  add r5, r2, r3, asl #6
  addne r5, r5, r4
  tst r1, #1024
  bne .L1943
  ldr r1, [r5, #0]
  add sl, sl, #1
  ands  r3, r1, #255
  orrne r3, r3, r8
  strneh  r3, [lr, #0]  @ movhi
  mov r3, r1, lsr #8
  streqh  r0, [lr, #0]  @ movhi
  ands  r3, r3, #255
  orrne r3, r3, r8
  strneh  r3, [lr, #2]  @ movhi
  mov r3, r1, lsr #16
  streqh  r0, [lr, #2]  @ movhi
  ands  r3, r3, #255
  orrne r3, r3, r8
  strneh  r3, [lr, #4]  @ movhi
  streqh  r0, [lr, #4]  @ movhi
  movs  r3, r1, lsr #24
  ldr r1, [r5, #4]
  orrne r3, r3, r8
  strneh  r3, [lr, #6]  @ movhi
  streqh  r0, [lr, #6]  @ movhi
  ands  r3, r1, #255
  orrne r3, r3, r8
  strneh  r3, [lr, #8]  @ movhi
  mov r3, r1, lsr #8
  streqh  r0, [lr, #8]  @ movhi
  ands  r3, r3, #255
  orrne r3, r3, r8
  strneh  r3, [lr, #10] @ movhi
  mov r3, r1, lsr #16
  streqh  r0, [lr, #10] @ movhi
  ands  r3, r3, #255
  orrne r3, r3, r8
  strneh  r3, [lr, #12] @ movhi
  streqh  r0, [lr, #12] @ movhi
  movs  r3, r1, lsr #24
  orrne r3, r3, r8
  strneh  r3, [lr, #14] @ movhi
  streqh  r0, [lr, #14] @ movhi
  cmp r9, sl
  add lr, lr, #16
  add r6, r6, #2
  bne .L1310
.L1942:
  add r7, r7, r9, asl #4
  add fp, fp, r9, asl #1
.L1308:
  ldr r1, [sp, #12]
  ands  lr, r1, #7
  beq .L1907
  ldrh  r1, [fp, #0]
  mov r3, r1, asl #22
  mov r3, r3, lsr #22
  tst r1, #2048
  add r2, r2, r3, asl #6
  ldrne r3, [sp, #4]
  addne r2, r2, r3
  tst r1, #1024
  beq .L1366
  cmp lr, #3
  ldrls r2, [r2, #4]
  bhi .L1944
.L1383:
  mov r1, #0
.L1384:
  movs  r3, r2, lsr #24
  orr r3, r3, r8
  add r1, r1, #1
  strneh  r3, [r7, #0]  @ movhi
  streqh  r0, [r7, #0]  @ movhi
  cmp lr, r1
  mov r2, r2, asl #8
  add r7, r7, #2
  bhi .L1384
  b .L1907
.L1805:
  strh  r5, [lr, #0]  @ movhi
  strh  r5, [lr, #2]  @ movhi
  strh  r5, [lr, #4]  @ movhi
  strh  r5, [lr, #6]  @ movhi
  strh  r5, [lr, #8]  @ movhi
  strh  r5, [lr, #10] @ movhi
  strh  r5, [lr, #12] @ movhi
  strh  r5, [lr, #14] @ movhi
  b .L1804
.L1866:
  strh  r5, [lr, #0]  @ movhi
  strh  r5, [lr, #2]  @ movhi
  strh  r5, [lr, #4]  @ movhi
  strh  r5, [lr, #6]  @ movhi
  strh  r5, [lr, #8]  @ movhi
  strh  r5, [lr, #10] @ movhi
  strh  r5, [lr, #12] @ movhi
  strh  r5, [lr, #14] @ movhi
  b .L1865
.L1902:
  ands  r3, r2, #15
  orr r3, ip, r3
  orr r3, r3, r8
  add r1, r1, #1
  strneh  r3, [r7, #0]  @ movhi
  streqh  r0, [r7, #0]  @ movhi
  cmp lr, r1
  mov r2, r2, lsr #4
  add r7, r7, #2
  bne .L1902
  b .L1907
.L1938:
  ldr r2, [sp, #12]
  rsb r5, r1, #8
  cmp r2, r5
  bcs .L1639
  ldrh  lr, [fp, #0]
  mov r3, lr, asl #22
  mov r3, r3, lsr #22
  tst lr, #2048
  add ip, ip, r3, asl #5
  ldrne r3, [sp, #8]
  mov r2, lr, lsr #12
  addne ip, ip, r3
  tst lr, #1024
  mov r2, r2, asl #4
  bne .L1945
  ldr r4, [sp, #12]
  ldr ip, [ip, #0]
  cmp r4, #0
  beq .L1907
  mov r3, r1, asl #2
  mov r1, ip, lsr r3
  mov ip, #0
.L1652:
  ands  r3, r1, #15
  orr r3, r2, r3
  orr r3, r3, r8
  strneh  r3, [r7, #0]  @ movhi
  ldr r3, [sp, #12]
  add ip, ip, #1
  streqh  r0, [r7, #0]  @ movhi
  cmp r3, ip
  mov r1, r1, lsr #4
  add r7, r7, #2
  bne .L1652
  b .L1907
.L1955:
  .align  2
.L1954:
  .word io_registers
  .word map_widths
  .word vram
.L1933:
  ldrh  r5, [fp, #0]
  rsb r6, r1, #8
  mov r2, r5, asl #22
  mov r2, r2, lsr #22
  tst r5, #2048
  mov r3, r5, lsr #12
  mov sl, r3, asl #4
  add r3, ip, r2, asl #5
  ldrne r2, [sp, #8]
  addne r3, r3, r2
  tst r5, #1024
  beq .L1755
  cmp r6, #0
  ldr r2, [r3, #0]
  beq .L1757
  mov r3, r1, asl #2
  mov r1, r2, asl r3
  mov lr, #0
  mov r2, r7
.L1759:
  movs  r3, r1, lsr #28
  orr r3, sl, r3
  orr r3, r3, r8
  add lr, lr, #1
  strneh  r3, [r2, #0]  @ movhi
  streqh  r0, [r2, #0]  @ movhi
  cmp r6, lr
  mov r1, r1, asl #4
  add r2, r2, #2
  bne .L1759
  add r7, r7, r6, asl #1
.L1757:
  add fp, fp, #2
  b .L1752
.L1926:
  ldrh  r1, [fp, #0]
  rsb r6, lr, #8
  tst r1, #2048
  mov r3, r1, asl #22
  ldrne r4, [sp, #4]
  mov r3, r3, lsr #22
  add sl, r2, r3, asl #6
  addne sl, sl, r4
  ands  r5, r1, #1024
  beq .L1415
  cmp lr, #3
  bhi .L1946
  subs  ip, r6, #4
  ldr r1, [sl, #4]
  beq .L1427
  mov r3, lr, asl #3
  sub r3, r3, #32
  mov r1, r1, asl r3
  mov lr, r7
  mov r5, #0
.L1429:
  movs  r3, r1, lsr #24
  orr r3, r3, r8
  add r5, r5, #1
  strneh  r3, [lr, #0]  @ movhi
  streqh  r0, [lr, #0]  @ movhi
  cmp ip, r5
  mov r1, r1, asl #8
  add lr, lr, #2
  bne .L1429
  add r3, r7, r6, asl #1
  sub r7, r3, #8
.L1427:
  ldr r1, [sl, #0]
  ands  r3, r1, #255
  orrne r3, r3, r8
  strneh  r3, [r7, #6]  @ movhi
  mov r3, r1, lsr #8
  streqh  r0, [r7, #6]  @ movhi
  ands  r3, r3, #255
  orrne r3, r3, r8
  strneh  r3, [r7, #4]  @ movhi
  mov r3, r1, lsr #16
  streqh  r0, [r7, #4]  @ movhi
  ands  r3, r3, #255
  orrne r3, r3, r8
  strneh  r3, [r7, #2]  @ movhi
  streqh  r0, [r7, #2]  @ movhi
  movs  r3, r1, lsr #24
  orrne r3, r3, r8
  strneh  r3, [r7, #0]  @ movhi
  streqh  r0, [r7, #0]  @ movhi
.L1475:
  add r7, r7, #8
  mov r6, ip
.L1419:
  add fp, fp, #2
  b .L1412
.L1941:
  ldr r3, [sp, #12]
  rsb r4, lr, #8
  cmp r3, r4
  bcs .L1178
  ldrh  r1, [fp, #0]
  tst r1, #2048
  mov r3, r1, asl #22
  ldrne r4, [sp, #4]
  mov r3, r3, lsr #22
  add ip, r2, r3, asl #6
  addne ip, ip, r4
  tst r1, #1024
  bne .L1947
  cmp lr, #3
  bls .L1215
  ldr r4, [sp, #12]
  ldr r2, [ip, #4]
  cmp r4, #0
  beq .L1907
  mov r3, lr, asl #3
  sub r3, r3, #32
  mov r1, r2, lsr r3
  mov r2, #0
.L1218:
  ands  r3, r1, #255
  orr r3, r3, r8
  strneh  r3, [r7, #0]  @ movhi
  ldr r3, [sp, #12]
  add r2, r2, #1
  streqh  r0, [r7, #0]  @ movhi
  cmp r3, r2
  mov r1, r1, lsr #8
  add r7, r7, #2
  bne .L1218
  b .L1907
.L1709:
  strh  r5, [lr, #0]  @ movhi
  strh  r5, [lr, #2]  @ movhi
  strh  r5, [lr, #4]  @ movhi
  strh  r5, [lr, #6]  @ movhi
  strh  r5, [lr, #8]  @ movhi
  strh  r5, [lr, #10] @ movhi
  strh  r5, [lr, #12] @ movhi
  strh  r5, [lr, #14] @ movhi
  b .L1708
.L1745:
  ands  r3, r2, #15
  orr r3, ip, r3
  orr r3, r3, r8
  add r1, r1, #1
  strneh  r3, [r7, #0]  @ movhi
  streqh  r0, [r7, #0]  @ movhi
  cmp lr, r1
  mov r2, r2, lsr #4
  add r7, r7, #2
  bne .L1745
  b .L1907
.L1591:
  cmp lr, #3
  ldrls r2, [r2, #0]
  bhi .L1948
.L1629:
  mov r1, #0
.L1630:
  ands  r3, r2, #255
  orr r3, r3, r8
  add r1, r1, #1
  strneh  r3, [r7, #0]  @ movhi
  streqh  r0, [r7, #0]  @ movhi
  cmp lr, r1
  mov r2, r2, lsr #8
  add r7, r7, #2
  bhi .L1630
  b .L1907
.L1366:
  cmp lr, #3
  ldrls r2, [r2, #0]
  bhi .L1949
.L1404:
  mov r1, #0
.L1405:
  ands  r3, r2, #255
  orr r3, r3, r8
  add r1, r1, #1
  strneh  r3, [r7, #0]  @ movhi
  streqh  r0, [r7, #0]  @ movhi
  cmp lr, r1
  mov r2, r2, lsr #8
  add r7, r7, #2
  bhi .L1405
  b .L1907
.L1755:
  cmp r6, #0
  ldr r2, [r3, #0]
  beq .L1757
  mov r3, r1, asl #2
  mov r1, r2, lsr r3
  mov lr, #0
  mov r2, r7
.L1766:
  ands  r3, r1, #15
  orr r3, sl, r3
  orr r3, r3, r8
  add lr, lr, #1
  strneh  r3, [r2, #0]  @ movhi
  streqh  r0, [r2, #0]  @ movhi
  cmp r6, lr
  mov r1, r1, lsr #4
  add r2, r2, #2
  bne .L1766
  add r7, r7, r6, asl #1
  b .L1757
.L1639:
  ldrh  lr, [fp, #0]
  mov r2, lr, asl #22
  mov r2, r2, lsr #22
  tst lr, #2048
  mov r3, lr, lsr #12
  mov r4, r3, asl #4
  add r3, ip, r2, asl #5
  ldrne r2, [sp, #8]
  addne r3, r3, r2
  tst lr, #1024
  bne .L1950
  cmp r5, #0
  ldr r2, [r3, #0]
  beq .L1661
  mov r3, r1, asl #2
  mov r1, r2, lsr r3
  mov lr, #0
  mov r2, r7
.L1670:
  ands  r3, r1, #15
  orr r3, r4, r3
  orr r3, r3, r8
  add lr, lr, #1
  strneh  r3, [r2, #0]  @ movhi
  streqh  r0, [r2, #0]  @ movhi
  cmp r5, lr
  mov r1, r1, lsr #4
  add r2, r2, #2
  bne .L1670
.L1922:
  add r7, r7, r5, asl #1
.L1661:
  ldr r3, [sp, #12]
  add fp, fp, #2
  rsb r3, r5, r3
  str r3, [sp, #12]
  b .L1637
.L1415:
  cmp lr, #3
  bhi .L1951
  subs  ip, r6, #4
  ldr r1, [sl, #0]
  beq .L1456
  mov r3, lr, asl #3
  mov r1, r1, lsr r3
  mov lr, r7
  mov r5, #0
.L1458:
  ands  r3, r1, #255
  orr r3, r3, r8
  add r5, r5, #1
  strneh  r3, [lr, #0]  @ movhi
  streqh  r0, [lr, #0]  @ movhi
  cmp ip, r5
  mov r1, r1, lsr #8
  add lr, lr, #2
  bne .L1458
  add r3, r7, r6, asl #1
  sub r7, r3, #8
.L1456:
  ldr r1, [sl, #4]
  ands  r3, r1, #255
  orrne r3, r3, r8
  strneh  r3, [r7, #0]  @ movhi
  mov r3, r1, lsr #8
  streqh  r0, [r7, #0]  @ movhi
  ands  r3, r3, #255
  orrne r3, r3, r8
  strneh  r3, [r7, #2]  @ movhi
  mov r3, r1, lsr #16
  streqh  r0, [r7, #2]  @ movhi
  ands  r3, r3, #255
  orrne r3, r3, r8
  strneh  r3, [r7, #4]  @ movhi
  streqh  r0, [r7, #4]  @ movhi
  movs  r3, r1, lsr #24
  orrne r3, r3, r8
  strneh  r3, [r7, #6]  @ movhi
  streqh  r0, [r7, #6]  @ movhi
  b .L1475
.L1178:
  ldrh  r1, [fp, #0]
  mov r3, r1, asl #22
  mov r3, r3, lsr #22
  tst r1, #2048
  add ip, r2, r3, asl #6
  ldrne r3, [sp, #4]
  addne ip, ip, r3
  ands  r5, r1, #1024
  bne .L1952
  cmp lr, #3
  bls .L1279
  cmp r4, #0
  ldr r1, [ip, #4]
  beq .L1251
  mov r3, lr, asl #3
  sub r3, r3, #32
  mov r1, r1, lsr r3
  mov ip, r5
  mov lr, r7
.L1282:
  ands  r3, r1, #255
  orr r3, r3, r8
  add ip, ip, #1
  strneh  r3, [lr, #0]  @ movhi
  streqh  r0, [lr, #0]  @ movhi
  cmp r4, ip
  mov r1, r1, lsr #8
  add lr, lr, #2
  bne .L1282
.L1909:
  add r7, r7, r4, asl #1
.L1251:
  ldr r1, [sp, #12]
  add fp, fp, #2
  rsb r1, r4, r1
  str r1, [sp, #12]
  b .L1176
.L1948:
  ldmia r2, {r1, r2}  @ phole ldm
  ands  r3, r1, #255
  orrne r3, r3, r8
  strneh  r3, [r7, #0]  @ movhi
  mov r3, r1, lsr #8
  streqh  r0, [r7, #0]  @ movhi
  ands  r3, r3, #255
  orrne r3, r3, r8
  strneh  r3, [r7, #2]  @ movhi
  mov r3, r1, lsr #16
  streqh  r0, [r7, #2]  @ movhi
  ands  r3, r3, #255
  orrne r3, r3, r8
  strneh  r3, [r7, #4]  @ movhi
  streqh  r0, [r7, #4]  @ movhi
  movs  r3, r1, lsr #24
  orrne r3, r3, r8
  strneh  r3, [r7, #6]  @ movhi
  streqh  r0, [r7, #6]  @ movhi
  subs  lr, lr, #4
  addne r7, r7, #8
  bne .L1629
  b .L1907
.L1931:
  ldr r1, [r2, #4]
  ldr r2, [r2, #0]
  ands  r3, r1, #255
  orrne r3, r3, r8
  strneh  r3, [r7, #6]  @ movhi
  mov r3, r1, lsr #8
  streqh  r0, [r7, #6]  @ movhi
  ands  r3, r3, #255
  orrne r3, r3, r8
  strneh  r3, [r7, #4]  @ movhi
  mov r3, r1, lsr #16
  streqh  r0, [r7, #4]  @ movhi
  ands  r3, r3, #255
  orrne r3, r3, r8
  strneh  r3, [r7, #2]  @ movhi
  streqh  r0, [r7, #2]  @ movhi
  movs  r3, r1, lsr #24
  orrne r3, r3, r8
  strneh  r3, [r7, #0]  @ movhi
  streqh  r0, [r7, #0]  @ movhi
  subs  lr, lr, #4
  addne r7, r7, #8
  bne .L1608
  b .L1907
.L1944:
  ldr r1, [r2, #4]
  ldr r2, [r2, #0]
  ands  r3, r1, #255
  orrne r3, r3, r8
  strneh  r3, [r7, #6]  @ movhi
  mov r3, r1, lsr #8
  streqh  r0, [r7, #6]  @ movhi
  ands  r3, r3, #255
  orrne r3, r3, r8
  strneh  r3, [r7, #4]  @ movhi
  mov r3, r1, lsr #16
  streqh  r0, [r7, #4]  @ movhi
  ands  r3, r3, #255
  orrne r3, r3, r8
  strneh  r3, [r7, #2]  @ movhi
  streqh  r0, [r7, #2]  @ movhi
  movs  r3, r1, lsr #24
  orrne r3, r3, r8
  strneh  r3, [r7, #0]  @ movhi
  streqh  r0, [r7, #0]  @ movhi
  subs  lr, lr, #4
  addne r7, r7, #8
  bne .L1383
  b .L1907
.L1949:
  ldmia r2, {r1, r2}  @ phole ldm
  ands  r3, r1, #255
  orrne r3, r3, r8
  strneh  r3, [r7, #0]  @ movhi
  mov r3, r1, lsr #8
  streqh  r0, [r7, #0]  @ movhi
  ands  r3, r3, #255
  orrne r3, r3, r8
  strneh  r3, [r7, #2]  @ movhi
  mov r3, r1, lsr #16
  streqh  r0, [r7, #2]  @ movhi
  ands  r3, r3, #255
  orrne r3, r3, r8
  strneh  r3, [r7, #4]  @ movhi
  streqh  r0, [r7, #4]  @ movhi
  movs  r3, r1, lsr #24
  orrne r3, r3, r8
  strneh  r3, [r7, #6]  @ movhi
  streqh  r0, [r7, #6]  @ movhi
  subs  lr, lr, #4
  addne r7, r7, #8
  bne .L1404
  b .L1907
.L1946:
  cmp r6, #0
  ldr r1, [sl, #0]
  beq .L1419
  mov r3, lr, asl #3
  sub r3, r3, #32
  mov r1, r1, asl r3
  mov lr, r7
  mov r5, #0
.L1421:
  movs  r3, r1, lsr #24
  orr r3, r3, r8
  add r5, r5, #1
  strneh  r3, [lr, #0]  @ movhi
  streqh  r0, [lr, #0]  @ movhi
  cmp r6, r5
  mov r1, r1, asl #8
  add lr, lr, #2
  bne .L1421
  add r7, r7, r6, asl #1
.L1953:
  add fp, fp, #2
  b .L1412
.L1945:
  ldr r4, [sp, #12]
  ldr ip, [ip, #0]
  cmp r4, #0
  beq .L1907
  mov r3, r1, asl #2
  mov r1, ip, asl r3
  mov ip, #0
.L1646:
  movs  r3, r1, lsr #28
  orr r3, r2, r3
  orr r3, r3, r8
  strneh  r3, [r7, #0]  @ movhi
  ldr r3, [sp, #12]
  add ip, ip, #1
  streqh  r0, [r7, #0]  @ movhi
  cmp r3, ip
  mov r1, r1, asl #4
  add r7, r7, #2
  bne .L1646
  b .L1907
.L1952:
  cmp lr, #3
  bls .L1249
  cmp r4, #0
  ldr r1, [ip, #0]
  beq .L1251
  mov r3, lr, asl #3
  sub r3, r3, #32
  mov r1, r1, asl r3
  mov lr, r7
  mov r5, #0
.L1253:
  movs  r3, r1, lsr #24
  orr r3, r3, r8
  add r5, r5, #1
  strneh  r3, [lr, #0]  @ movhi
  streqh  r0, [lr, #0]  @ movhi
  cmp r4, r5
  mov r1, r1, asl #8
  add lr, lr, #2
  bne .L1253
  b .L1909
.L1950:
  cmp r5, #0
  ldr r2, [r3, #0]
  beq .L1661
  mov r3, r1, asl #2
  mov r1, r2, asl r3
  mov lr, #0
  mov r2, r7
.L1663:
  movs  r3, r1, lsr #28
  orr r3, r4, r3
  orr r3, r3, r8
  add lr, lr, #1
  strneh  r3, [r2, #0]  @ movhi
  streqh  r0, [r2, #0]  @ movhi
  cmp r5, lr
  mov r1, r1, asl #4
  add r2, r2, #2
  bne .L1663
  b .L1922
.L1947:
  cmp lr, #3
  bls .L1184
  ldr r1, [sp, #12]
  ldr r2, [ip, #0]
  cmp r1, #0
  beq .L1907
  mov r3, lr, asl #3
  sub r3, r3, #32
  mov r1, r2, asl r3
  mov r2, #0
.L1188:
  movs  r3, r1, lsr #24
  orr r3, r3, r8
  strneh  r3, [r7, #0]  @ movhi
  ldr r3, [sp, #12]
  add r2, r2, #1
  streqh  r0, [r7, #0]  @ movhi
  cmp r3, r2
  mov r1, r1, asl #8
  add r7, r7, #2
  bne .L1188
  b .L1907
.L1951:
  cmp r6, #0
  ldr r1, [sl, #4]
  beq .L1419
  mov r3, lr, asl #3
  sub r3, r3, #32
  mov r1, r1, lsr r3
  mov lr, r7
.L1450:
  ands  r3, r1, #255
  orr r3, r3, r8
  add r5, r5, #1
  strneh  r3, [lr, #0]  @ movhi
  streqh  r0, [lr, #0]  @ movhi
  cmp r6, r5
  mov r1, r1, lsr #8
  add lr, lr, #2
  bne .L1450
  add r7, r7, r6, asl #1
  b .L1953
.L1184:
  ldr r4, [sp, #12]
  mov r3, lr, asl #3
  ldr r1, [ip, #4]
  add r2, r4, lr
  sub r3, r3, #32
  cmp r2, #4
  mov r1, r1, asl r3
  bhi .L1193
  cmp r4, #0
  movne r2, #0
  beq .L1907
.L1210:
  movs  r3, r1, lsr #24
  orr r3, r3, r8
  strneh  r3, [r7, #0]  @ movhi
  ldr r3, [sp, #12]
  add r2, r2, #1
  streqh  r0, [r7, #0]  @ movhi
  cmp r3, r2
  mov r1, r1, asl #8
  add r7, r7, #2
  bne .L1210
  b .L1907
.L1249:
  subs  r6, r4, #4
  ldr r1, [ip, #4]
  beq .L1259
  mov r3, lr, asl #3
  sub r3, r3, #32
  mov r1, r1, asl r3
  mov lr, r7
  mov r5, #0
.L1261:
  movs  r3, r1, lsr #24
  orr r3, r3, r8
  add r5, r5, #1
  strneh  r3, [lr, #0]  @ movhi
  streqh  r0, [lr, #0]  @ movhi
  cmp r6, r5
  mov r1, r1, asl #8
  add lr, lr, #2
  bne .L1261
  add r3, r7, r4, asl #1
  sub r7, r3, #8
.L1259:
  ldr r1, [ip, #0]
  ands  r3, r1, #255
  orrne r3, r3, r8
  strneh  r3, [r7, #6]  @ movhi
  mov r3, r1, lsr #8
  streqh  r0, [r7, #6]  @ movhi
  ands  r3, r3, #255
  orrne r3, r3, r8
  strneh  r3, [r7, #4]  @ movhi
  mov r3, r1, lsr #16
  streqh  r0, [r7, #4]  @ movhi
  ands  r3, r3, #255
  orrne r3, r3, r8
  strneh  r3, [r7, #2]  @ movhi
  streqh  r0, [r7, #2]  @ movhi
  movs  r3, r1, lsr #24
  orrne r3, r3, r8
  strneh  r3, [r7, #0]  @ movhi
  streqh  r0, [r7, #0]  @ movhi
.L1307:
  add r7, r7, #8
  b .L1251
.L1215:
  ldr r4, [sp, #12]
  ldr r3, [ip, #0]
  add r2, r4, lr
  cmp r2, #4
  mov r1, lr, asl #3
  mov r2, r3, lsr r1
  bhi .L1223
  cmp r4, #0
  movne r1, #0
  beq .L1907
.L1240:
  ands  r3, r2, #255
  orr r3, r3, r8
  strneh  r3, [r7, #0]  @ movhi
  ldr r3, [sp, #12]
  add r1, r1, #1
  streqh  r0, [r7, #0]  @ movhi
  cmp r3, r1
  mov r2, r2, lsr #8
  add r7, r7, #2
  bne .L1240
  b .L1907
.L1279:
  subs  r6, r4, #4
  ldr r1, [ip, #0]
  beq .L1288
  mov r3, lr, asl #3
  mov r1, r1, lsr r3
  mov lr, r7
  mov r5, #0
.L1290:
  ands  r3, r1, #255
  orr r3, r3, r8
  add r5, r5, #1
  strneh  r3, [lr, #0]  @ movhi
  streqh  r0, [lr, #0]  @ movhi
  cmp r6, r5
  mov r1, r1, lsr #8
  add lr, lr, #2
  bne .L1290
  add r3, r7, r4, asl #1
  sub r7, r3, #8
.L1288:
  ldr r1, [ip, #4]
  ands  r3, r1, #255
  orrne r3, r3, r8
  strneh  r3, [r7, #0]  @ movhi
  mov r3, r1, lsr #8
  streqh  r0, [r7, #0]  @ movhi
  ands  r3, r3, #255
  orrne r3, r3, r8
  strneh  r3, [r7, #2]  @ movhi
  mov r3, r1, lsr #16
  streqh  r0, [r7, #2]  @ movhi
  ands  r3, r3, #255
  orrne r3, r3, r8
  strneh  r3, [r7, #4]  @ movhi
  streqh  r0, [r7, #4]  @ movhi
  movs  r3, r1, lsr #24
  orrne r3, r3, r8
  strneh  r3, [r7, #6]  @ movhi
  bne .L1307
  strh  r0, [r7, #6]  @ movhi
  add r7, r7, #8
  b .L1251
.L1193:
  rsbs  r4, lr, #4
  beq .L1196
  mov r2, r7
  mov lr, #0
.L1198:
  movs  r3, r1, lsr #24
  orr r3, r3, r8
  add lr, lr, #1
  strneh  r3, [r2, #0]  @ movhi
  streqh  r0, [r2, #0]  @ movhi
  cmp r4, lr
  mov r1, r1, asl #8
  add r2, r2, #2
  bne .L1198
  add r7, r7, r4, asl #1
.L1196:
  ldr r1, [sp, #12]
  ldr r2, [ip, #0]
  subs  lr, r1, r4
  beq .L1907
  mov r1, #0
.L1205:
  movs  r3, r2, lsr #24
  orr r3, r3, r8
  add r1, r1, #1
  strneh  r3, [r7, #0]  @ movhi
  streqh  r0, [r7, #0]  @ movhi
  cmp lr, r1
  mov r2, r2, asl #8
  add r7, r7, #2
  bne .L1205
  b .L1907
.L1223:
  rsbs  r4, lr, #4
  beq .L1226
  mov r1, r7
  mov lr, #0
.L1228:
  ands  r3, r2, #255
  orr r3, r3, r8
  add lr, lr, #1
  strneh  r3, [r1, #0]  @ movhi
  streqh  r0, [r1, #0]  @ movhi
  cmp r4, lr
  mov r2, r2, lsr #8
  add r1, r1, #2
  bne .L1228
  add r7, r7, r4, asl #1
.L1226:
  ldr r1, [sp, #12]
  ldr r2, [ip, #4]
  subs  lr, r1, r4
  beq .L1907
  mov r1, #0
.L1235:
  ands  r3, r2, #255
  orr r3, r3, r8
  add r1, r1, #1
  strneh  r3, [r7, #0]  @ movhi
  streqh  r0, [r7, #0]  @ movhi
  cmp lr, r1
  mov r2, r2, lsr #8
  add r7, r7, #2
  bne .L1235
  b .L1907
  .size render_scanline_text_base_color16, .-render_scanline_text_base_color16
  .align  2
  .global render_scanline_text_transparent_color16
  .type render_scanline_text_transparent_color16, %function
render_scanline_text_transparent_color16:
  @ args = 0, pretend = 0, frame = 8
  @ frame_needed = 0, uses_anonymous_args = 0
  ldr ip, .L2599
  stmfd sp!, {r4, r5, r6, r7, r8, r9, sl, fp, lr}
  ldrh  lr, [ip, #80]
  add r6, r0, #7
  mov r6, lr, asr r6
  mov lr, lr, asr r0
  add r7, ip, r0, asl #2
  ldrh  r5, [ip, #6]
  ldrh  r4, [r7, #18]
  add ip, ip, r0, asl #1
  add sl, r5, r4
  ldrh  r8, [ip, #8]
  mov r5, sl, asl #23
  sub sp, sp, #8
  mov r5, r5, lsr #23
  rsb r2, r1, r2
  ldrh  r4, [r7, #16]
  cmp r5, #255
  movls ip, #0
  movhi ip, #1
  mov r7, r8, lsr #14
  str r2, [sp, #4]
  ldr r2, .L2599+4
  ands  ip, ip, r7, lsr #1
  add fp, r3, r1, asl #1
  ldr r2, [r2, r7, asl #2]
  subne r3, r5, #256
  mov r0, r8, asl #3
  ldr r9, .L2599+8
  movne r3, r3, lsr #3
  moveq r3, sl, asl #3
  add r4, r4, r1
  and r0, r0, #63488
  add r0, r0, r9
  addne r3, r3, r2, lsr #3
  andeq r3, r3, #1984
  mov r4, r4, asl #23
  addne r0, r0, r3, asl #6
  addeq r0, r0, r3
  mov r4, r4, lsr #23
  tst r7, #1
  and lr, lr, #1
  and r6, r6, #2
  andeq r4, r4, #255
  orr lr, lr, r6
  moveq r3, r4, lsr #3
  mov lr, lr, asl #9
  addeq r7, r0, r3, asl #1
  streq r0, [sp, #0]
  beq .L1964
  cmp r4, #255
  subhi r4, r4, #256
  movhi r3, r4, lsr #3
  movls r3, r4, lsr #3
  addhi r3, r0, r3, asl #1
  addls r7, r0, r3, asl #1
  addls r0, r0, #2048
  addhi r7, r3, #2048
  strhi r0, [sp, #0]
  strls r0, [sp, #0]
.L1964:
  tst r8, #128
  beq .L1965
  and r1, r4, #255
  rsb r0, r1, #256
  and r3, r5, #7
  mov r2, r8, asl #12
  ldr r1, [sp, #4]
  mov r3, r3, asl #3
  and r2, r2, #49152
  add r2, r2, r3
  cmp r1, r0
  mov r3, r3, asl #1
  add r2, r2, r9
  rsb ip, r3, #56
  and r4, r4, #7
  bls .L2574
  cmp r4, #0
  moveq r8, r4
  bne .L2575
.L2167:
  rsb r3, r8, r0
  movs  sl, r3, lsr #3
  beq .L2221
  mov r6, fp
  mov r8, #0
  b .L2223
.L2576:
  ldr r1, [r4, #4]
  cmp r1, #0
  beq .L2228
  ands  r3, r1, #255
  orrne r3, r3, lr
  strneh  r3, [r6, #6]  @ movhi
  mov r3, r1, lsr #8
  ands  r3, r3, #255
  orrne r3, r3, lr
  strneh  r3, [r6, #4]  @ movhi
  mov r3, r1, lsr #16
  ands  r3, r3, #255
  orrne r3, r3, lr
  strneh  r3, [r6, #2]  @ movhi
  movs  r3, r1, lsr #24
  orrne r3, r3, lr
  strneh  r3, [r6, #0]  @ movhi
.L2228:
  ldr r1, [r4, #0]
  cmp r1, #0
  beq .L2237
  ands  r3, r1, #255
  orrne r3, r3, lr
  strneh  r3, [r6, #14] @ movhi
  mov r3, r1, lsr #8
  ands  r3, r3, #255
  orrne r3, r3, lr
  strneh  r3, [r6, #12] @ movhi
  mov r3, r1, lsr #16
  ands  r3, r3, #255
  orrne r3, r3, lr
  strneh  r3, [r6, #10] @ movhi
  movs  r3, r1, lsr #24
  orrne r3, r3, lr
  strneh  r3, [r6, #8]  @ movhi
.L2237:
  add r8, r8, #1
  cmp sl, r8
  add r6, r6, #16
  beq .L2263
.L2577:
  add r7, r7, #2
.L2223:
  ldrh  r1, [r7, #0]
  mov r3, r1, asl #22
  mov r3, r3, lsr #22
  tst r1, #2048
  add r4, r2, r3, asl #6
  addne r4, r4, ip
  tst r1, #1024
  bne .L2576
  ldr r1, [r4, #0]
  cmp r1, #0
  beq .L2246
  ands  r3, r1, #255
  orrne r3, r3, lr
  strneh  r3, [r6, #0]  @ movhi
  mov r3, r1, lsr #8
  ands  r3, r3, #255
  orrne r3, r3, lr
  strneh  r3, [r6, #2]  @ movhi
  mov r3, r1, lsr #16
  ands  r3, r3, #255
  orrne r3, r3, lr
  strneh  r3, [r6, #4]  @ movhi
  movs  r3, r1, lsr #24
  orrne r3, r3, lr
  strneh  r3, [r6, #6]  @ movhi
.L2246:
  ldr r1, [r4, #4]
  cmp r1, #0
  beq .L2237
  ands  r3, r1, #255
  orrne r3, r3, lr
  strneh  r3, [r6, #8]  @ movhi
  mov r3, r1, lsr #8
  ands  r3, r3, #255
  orrne r3, r3, lr
  strneh  r3, [r6, #10] @ movhi
  mov r3, r1, lsr #16
  ands  r3, r3, #255
  orrne r3, r3, lr
  strneh  r3, [r6, #12] @ movhi
  movs  r3, r1, lsr #24
  orrne r3, r3, lr
  add r8, r8, #1
  strneh  r3, [r6, #14] @ movhi
  cmp sl, r8
  add r6, r6, #16
  bne .L2577
.L2263:
  add fp, fp, sl, asl #4
.L2221:
  ldr r3, [sp, #4]
  rsb sl, r0, r3
  movs  r0, sl, lsr #3
  ldreq r0, [sp, #0]
  beq .L2267
  ldr r7, [sp, #0]
  mov r6, fp
  mov r8, #0
  b .L2268
.L2579:
  ldr r1, [r4, #4]
  cmp r1, #0
  beq .L2273
  ands  r3, r1, #255
  orrne r3, r3, lr
  strneh  r3, [r6, #6]  @ movhi
  mov r3, r1, lsr #8
  ands  r3, r3, #255
  orrne r3, r3, lr
  strneh  r3, [r6, #4]  @ movhi
  mov r3, r1, lsr #16
  ands  r3, r3, #255
  orrne r3, r3, lr
  strneh  r3, [r6, #2]  @ movhi
  movs  r3, r1, lsr #24
  orrne r3, r3, lr
  strneh  r3, [r6, #0]  @ movhi
.L2273:
  ldr r1, [r4, #0]
  cmp r1, #0
  beq .L2282
  ands  r3, r1, #255
  orrne r3, r3, lr
  strneh  r3, [r6, #14] @ movhi
  mov r3, r1, lsr #8
  ands  r3, r3, #255
  orrne r3, r3, lr
  strneh  r3, [r6, #12] @ movhi
  mov r3, r1, lsr #16
  ands  r3, r3, #255
  orrne r3, r3, lr
  strneh  r3, [r6, #10] @ movhi
  movs  r3, r1, lsr #24
  orrne r3, r3, lr
  strneh  r3, [r6, #8]  @ movhi
.L2282:
  add r8, r8, #1
  cmp r0, r8
  add r6, r6, #16
  add r7, r7, #2
  beq .L2578
.L2268:
  ldrh  r1, [r7, #0]
  mov r3, r1, asl #22
  mov r3, r3, lsr #22
  tst r1, #2048
  add r4, r2, r3, asl #6
  addne r4, r4, ip
  tst r1, #1024
  bne .L2579
  ldr r1, [r4, #0]
  cmp r1, #0
  beq .L2291
  ands  r3, r1, #255
  orrne r3, r3, lr
  strneh  r3, [r6, #0]  @ movhi
  mov r3, r1, lsr #8
  ands  r3, r3, #255
  orrne r3, r3, lr
  strneh  r3, [r6, #2]  @ movhi
  mov r3, r1, lsr #16
  ands  r3, r3, #255
  orrne r3, r3, lr
  strneh  r3, [r6, #4]  @ movhi
  movs  r3, r1, lsr #24
  orrne r3, r3, lr
  strneh  r3, [r6, #6]  @ movhi
.L2291:
  ldr r1, [r4, #4]
  cmp r1, #0
  beq .L2282
  ands  r3, r1, #255
  orrne r3, r3, lr
  strneh  r3, [r6, #8]  @ movhi
  mov r3, r1, lsr #8
  ands  r3, r3, #255
  orrne r3, r3, lr
  strneh  r3, [r6, #10] @ movhi
  mov r3, r1, lsr #16
  ands  r3, r3, #255
  orrne r3, r3, lr
  strneh  r3, [r6, #12] @ movhi
  movs  r3, r1, lsr #24
  orrne r3, r3, lr
  add r8, r8, #1
  strneh  r3, [r6, #14] @ movhi
  cmp r0, r8
  add r6, r6, #16
  add r7, r7, #2
  bne .L2268
.L2578:
  ldr r1, [sp, #0]
  add fp, fp, r0, asl #4
  add r0, r1, r0, asl #1
.L2267:
  ands  r4, sl, #7
  beq .L2556
  ldrh  r0, [r0, #0]
  mov r3, r0, asl #22
  mov r3, r3, lsr #22
  tst r0, #2048
  add r2, r2, r3, asl #6
  addne r2, r2, ip
  tst r0, #1024
  beq .L2312
  cmp r4, #3
  ldrls r0, [r2, #4]
  bls .L2326
  ldr r1, [r2, #4]
  cmp r1, #0
  beq .L2316
  ands  r3, r1, #255
  orrne r3, r3, lr
  strneh  r3, [fp, #6]  @ movhi
  mov r3, r1, lsr #8
  ands  r3, r3, #255
  orrne r3, r3, lr
  strneh  r3, [fp, #4]  @ movhi
  mov r3, r1, lsr #16
  ands  r3, r3, #255
  orrne r3, r3, lr
  strneh  r3, [fp, #2]  @ movhi
  movs  r3, r1, lsr #24
  orrne r3, r3, lr
  strneh  r3, [fp, #0]  @ movhi
.L2316:
  subs  r4, r4, #4
  ldr r0, [r2, #0]
  addne fp, fp, #8
  beq .L2556
.L2326:
  mov r1, #0
.L2327:
  movs  r3, r0, lsr #24
  mov r2, r1, asl #1
  orr r3, r3, lr
  add r1, r1, #1
  strneh  r3, [r2, fp]  @ movhi
  cmp r1, r4
  mov r0, r0, asl #8
  bcc .L2327
.L2556:
  add sp, sp, #8
  ldmfd sp!, {r4, r5, r6, r7, r8, r9, sl, fp, pc}
.L1965:
  and r1, r4, #255
  ldr ip, [sp, #4]
  and r3, r5, #7
  mov r2, r8, asl #12
  mov r3, r3, asl #2
  rsb r0, r1, #256
  and r2, r2, #49152
  add r2, r2, r3
  cmp ip, r0
  mov r3, r3, asl #1
  add sl, r2, r9
  rsb ip, r3, #28
  and r1, r4, #7
  bls .L2580
  cmp r1, #0
  moveq r8, r1
  bne .L2581
.L2441:
  rsb r3, r8, r0
  movs  r9, r3, lsr #3
  beq .L2459
  mov r4, fp
  mov r8, #0
  b .L2461
.L2582:
  ldr r2, [r3, #0]
  cmp r2, #0
  beq .L2466
  ands  r3, r2, #15
  orrne r3, r6, r3
  orrne r3, r3, lr
  strneh  r3, [r4, #14] @ movhi
  mov r3, r2, lsr #4
  ands  r3, r3, #15
  orrne r3, r6, r3
  orrne r3, r3, lr
  strneh  r3, [r4, #12] @ movhi
  mov r3, r2, lsr #8
  ands  r3, r3, #15
  orrne r3, r6, r3
  orrne r3, r3, lr
  strneh  r3, [r4, #10] @ movhi
  mov r3, r2, lsr #12
  ands  r3, r3, #15
  orrne r3, r6, r3
  orrne r3, r3, lr
  strneh  r3, [r4, #8]  @ movhi
  mov r3, r2, lsr #16
  ands  r3, r3, #15
  orrne r3, r6, r3
  orrne r3, r3, lr
  strneh  r3, [r4, #6]  @ movhi
  mov r3, r2, lsr #20
  ands  r3, r3, #15
  orrne r3, r6, r3
  orrne r3, r3, lr
  strneh  r3, [r4, #4]  @ movhi
  mov r3, r2, lsr #24
  ands  r3, r3, #15
  orrne r3, r6, r3
  orrne r3, r3, lr
  strneh  r3, [r4, #2]  @ movhi
  movs  r3, r2, lsr #28
  orrne r3, r6, r3
  orrne r3, r3, lr
  strneh  r3, [r4, #0]  @ movhi
.L2466:
  add r8, r8, #1
  cmp r9, r8
  add r4, r4, #16
  beq .L2499
.L2583:
  add r7, r7, #2
.L2461:
  ldrh  r1, [r7, #0]
  mov r2, r1, asl #22
  mov r3, r1, lsr #12
  mov r2, r2, lsr #22
  tst r1, #2048
  mov r6, r3, asl #4
  add r3, sl, r2, asl #5
  addne r3, r3, ip
  tst r1, #1024
  bne .L2582
  ldr r2, [r3, #0]
  cmp r2, #0
  beq .L2466
  ands  r3, r2, #15
  orrne r3, r6, r3
  orrne r3, r3, lr
  strneh  r3, [r4, #0]  @ movhi
  mov r3, r2, lsr #4
  ands  r3, r3, #15
  orrne r3, r6, r3
  orrne r3, r3, lr
  strneh  r3, [r4, #2]  @ movhi
  mov r3, r2, lsr #8
  ands  r3, r3, #15
  orrne r3, r6, r3
  orrne r3, r3, lr
  strneh  r3, [r4, #4]  @ movhi
  mov r3, r2, lsr #12
  ands  r3, r3, #15
  orrne r3, r6, r3
  orrne r3, r3, lr
  strneh  r3, [r4, #6]  @ movhi
  mov r3, r2, lsr #16
  ands  r3, r3, #15
  orrne r3, r6, r3
  orrne r3, r3, lr
  strneh  r3, [r4, #8]  @ movhi
  mov r3, r2, lsr #20
  ands  r3, r3, #15
  orrne r3, r6, r3
  orrne r3, r3, lr
  strneh  r3, [r4, #10] @ movhi
  mov r3, r2, lsr #24
  ands  r3, r3, #15
  orrne r3, r6, r3
  orrne r3, r3, lr
  strneh  r3, [r4, #12] @ movhi
  movs  r3, r2, lsr #28
  orrne r3, r6, r3
  orrne r3, r3, lr
  add r8, r8, #1
  strneh  r3, [r4, #14] @ movhi
  cmp r9, r8
  add r4, r4, #16
  bne .L2583
.L2499:
  add fp, fp, r9, asl #4
.L2459:
  ldr r1, [sp, #4]
  rsb r9, r0, r1
  movs  r0, r9, lsr #3
  ldreq r0, [sp, #0]
  beq .L2503
  ldr r7, [sp, #0]
  mov r4, fp
  mov r8, #0
  b .L2504
.L2585:
  ldr r2, [r3, #0]
  cmp r2, #0
  beq .L2509
  ands  r3, r2, #15
  orrne r3, r6, r3
  orrne r3, r3, lr
  strneh  r3, [r4, #14] @ movhi
  mov r3, r2, lsr #4
  ands  r3, r3, #15
  orrne r3, r6, r3
  orrne r3, r3, lr
  strneh  r3, [r4, #12] @ movhi
  mov r3, r2, lsr #8
  ands  r3, r3, #15
  orrne r3, r6, r3
  orrne r3, r3, lr
  strneh  r3, [r4, #10] @ movhi
  mov r3, r2, lsr #12
  ands  r3, r3, #15
  orrne r3, r6, r3
  orrne r3, r3, lr
  strneh  r3, [r4, #8]  @ movhi
  mov r3, r2, lsr #16
  ands  r3, r3, #15
  orrne r3, r6, r3
  orrne r3, r3, lr
  strneh  r3, [r4, #6]  @ movhi
  mov r3, r2, lsr #20
  ands  r3, r3, #15
  orrne r3, r6, r3
  orrne r3, r3, lr
  strneh  r3, [r4, #4]  @ movhi
  mov r3, r2, lsr #24
  ands  r3, r3, #15
  orrne r3, r6, r3
  orrne r3, r3, lr
  strneh  r3, [r4, #2]  @ movhi
  movs  r3, r2, lsr #28
  orrne r3, r6, r3
  orrne r3, r3, lr
  strneh  r3, [r4, #0]  @ movhi
.L2509:
  add r8, r8, #1
  cmp r0, r8
  add r4, r4, #16
  add r7, r7, #2
  beq .L2584
.L2504:
  ldrh  r1, [r7, #0]
  mov r2, r1, asl #22
  mov r3, r1, lsr #12
  mov r2, r2, lsr #22
  tst r1, #2048
  mov r6, r3, asl #4
  add r3, sl, r2, asl #5
  addne r3, r3, ip
  tst r1, #1024
  bne .L2585
  ldr r2, [r3, #0]
  cmp r2, #0
  beq .L2509
  ands  r3, r2, #15
  orrne r3, r6, r3
  orrne r3, r3, lr
  strneh  r3, [r4, #0]  @ movhi
  mov r3, r2, lsr #4
  ands  r3, r3, #15
  orrne r3, r6, r3
  orrne r3, r3, lr
  strneh  r3, [r4, #2]  @ movhi
  mov r3, r2, lsr #8
  ands  r3, r3, #15
  orrne r3, r6, r3
  orrne r3, r3, lr
  strneh  r3, [r4, #4]  @ movhi
  mov r3, r2, lsr #12
  ands  r3, r3, #15
  orrne r3, r6, r3
  orrne r3, r3, lr
  strneh  r3, [r4, #6]  @ movhi
  mov r3, r2, lsr #16
  ands  r3, r3, #15
  orrne r3, r6, r3
  orrne r3, r3, lr
  strneh  r3, [r4, #8]  @ movhi
  mov r3, r2, lsr #20
  ands  r3, r3, #15
  orrne r3, r6, r3
  orrne r3, r3, lr
  strneh  r3, [r4, #10] @ movhi
  mov r3, r2, lsr #24
  ands  r3, r3, #15
  orrne r3, r6, r3
  orrne r3, r3, lr
  strneh  r3, [r4, #12] @ movhi
  movs  r3, r2, lsr #28
  orrne r3, r6, r3
  orrne r3, r3, lr
  add r8, r8, #1
  strneh  r3, [r4, #14] @ movhi
  cmp r0, r8
  add r4, r4, #16
  add r7, r7, #2
  bne .L2504
.L2584:
  ldr r3, [sp, #0]
  add fp, fp, r0, asl #4
  add r0, r3, r0, asl #1
.L2503:
  ands  r4, r9, #7
  beq .L2556
  ldrh  r0, [r0, #0]
  mov r3, r0, asl #22
  mov r3, r3, lsr #22
  tst r0, #2048
  add r3, sl, r3, asl #5
  addne r3, r3, ip
  mov r2, r0, lsr #12
  tst r0, #1024
  mov r2, r2, asl #4
  ldreq r0, [r3, #0]
  moveq ip, #0
  beq .L2552
  ldr r0, [r3, #0]
  mov ip, #0
.L2548:
  movs  r3, r0, lsr #28
  orr r3, r2, r3
  mov r1, ip, asl #1
  orr r3, r3, lr
  add ip, ip, #1
  strneh  r3, [r1, fp]  @ movhi
  cmp r4, ip
  mov r0, r0, asl #4
  bne .L2548
  b .L2556
.L2580:
  cmp r1, #0
  bne .L2586
.L2350:
  ldr r1, [sp, #4]
  movs  r0, r1, lsr #3
  beq .L2385
  mov r4, fp
  mov r6, r7
  mov r8, #0
  b .L2387
.L2588:
  ldr r2, [r3, #0]
  cmp r2, #0
  beq .L2392
  ands  r3, r2, #15
  orrne r3, r5, r3
  orrne r3, r3, lr
  strneh  r3, [r4, #14] @ movhi
  mov r3, r2, lsr #4
  ands  r3, r3, #15
  orrne r3, r5, r3
  orrne r3, r3, lr
  strneh  r3, [r4, #12] @ movhi
  mov r3, r2, lsr #8
  ands  r3, r3, #15
  orrne r3, r5, r3
  orrne r3, r3, lr
  strneh  r3, [r4, #10] @ movhi
  mov r3, r2, lsr #12
  ands  r3, r3, #15
  orrne r3, r5, r3
  orrne r3, r3, lr
  strneh  r3, [r4, #8]  @ movhi
  mov r3, r2, lsr #16
  ands  r3, r3, #15
  orrne r3, r5, r3
  orrne r3, r3, lr
  strneh  r3, [r4, #6]  @ movhi
  mov r3, r2, lsr #20
  ands  r3, r3, #15
  orrne r3, r5, r3
  orrne r3, r3, lr
  strneh  r3, [r4, #4]  @ movhi
  mov r3, r2, lsr #24
  ands  r3, r3, #15
  orrne r3, r5, r3
  orrne r3, r3, lr
  strneh  r3, [r4, #2]  @ movhi
  movs  r3, r2, lsr #28
  orrne r3, r5, r3
  orrne r3, r3, lr
  strneh  r3, [r4, #0]  @ movhi
.L2392:
  add r8, r8, #1
  cmp r0, r8
  add r4, r4, #16
  add r6, r6, #2
  beq .L2587
.L2387:
  ldrh  r1, [r6, #0]
  mov r2, r1, asl #22
  mov r3, r1, lsr #12
  mov r2, r2, lsr #22
  tst r1, #2048
  mov r5, r3, asl #4
  add r3, sl, r2, asl #5
  addne r3, r3, ip
  tst r1, #1024
  bne .L2588
  ldr r2, [r3, #0]
  cmp r2, #0
  beq .L2392
  ands  r3, r2, #15
  orrne r3, r5, r3
  orrne r3, r3, lr
  strneh  r3, [r4, #0]  @ movhi
  mov r3, r2, lsr #4
  ands  r3, r3, #15
  orrne r3, r5, r3
  orrne r3, r3, lr
  strneh  r3, [r4, #2]  @ movhi
  mov r3, r2, lsr #8
  ands  r3, r3, #15
  orrne r3, r5, r3
  orrne r3, r3, lr
  strneh  r3, [r4, #4]  @ movhi
  mov r3, r2, lsr #12
  ands  r3, r3, #15
  orrne r3, r5, r3
  orrne r3, r3, lr
  strneh  r3, [r4, #6]  @ movhi
  mov r3, r2, lsr #16
  ands  r3, r3, #15
  orrne r3, r5, r3
  orrne r3, r3, lr
  strneh  r3, [r4, #8]  @ movhi
  mov r3, r2, lsr #20
  ands  r3, r3, #15
  orrne r3, r5, r3
  orrne r3, r3, lr
  strneh  r3, [r4, #10] @ movhi
  mov r3, r2, lsr #24
  ands  r3, r3, #15
  orrne r3, r5, r3
  orrne r3, r3, lr
  strneh  r3, [r4, #12] @ movhi
  movs  r3, r2, lsr #28
  orrne r3, r5, r3
  orrne r3, r3, lr
  add r8, r8, #1
  strneh  r3, [r4, #14] @ movhi
  cmp r0, r8
  add r4, r4, #16
  add r6, r6, #2
  bne .L2387
.L2587:
  add fp, fp, r0, asl #4
  add r7, r7, r0, asl #1
.L2385:
  ldr r3, [sp, #4]
  ands  r4, r3, #7
  beq .L2556
  ldrh  r1, [r7, #0]
  mov r3, r1, asl #22
  mov r3, r3, lsr #22
  tst r1, #2048
  add r0, sl, r3, asl #5
  addne r0, r0, ip
  mov r2, r1, lsr #12
  tst r1, #1024
  mov r2, r2, asl #4
  ldreq r0, [r0, #0]
  moveq ip, #0
  beq .L2435
  ldr r0, [r0, #0]
  mov ip, #0
.L2431:
  movs  r3, r0, lsr #28
  orr r3, r2, r3
  mov r1, ip, asl #1
  orr r3, r3, lr
  add ip, ip, #1
  strneh  r3, [r1, fp]  @ movhi
  cmp r4, ip
  mov r0, r0, asl #4
  bne .L2431
  b .L2556
.L2574:
  cmp r4, #0
  bne .L2589
.L1969:
  ldr r3, [sp, #4]
  movs  sl, r3, lsr #3
  beq .L2083
  mov r5, fp
  mov r6, r7
  mov r8, #0
  b .L2085
.L2591:
  ldr r1, [r4, #4]
  cmp r1, #0
  beq .L2090
  ands  r3, r1, #255
  orrne r3, r3, lr
  strneh  r3, [r5, #6]  @ movhi
  mov r3, r1, lsr #8
  ands  r3, r3, #255
  orrne r3, r3, lr
  strneh  r3, [r5, #4]  @ movhi
  mov r3, r1, lsr #16
  ands  r3, r3, #255
  orrne r3, r3, lr
  strneh  r3, [r5, #2]  @ movhi
  movs  r3, r1, lsr #24
  orrne r3, r3, lr
  strneh  r3, [r5, #0]  @ movhi
.L2090:
  ldr r1, [r4, #0]
  cmp r1, #0
  beq .L2099
  ands  r3, r1, #255
  orrne r3, r3, lr
  strneh  r3, [r5, #14] @ movhi
  mov r3, r1, lsr #8
  ands  r3, r3, #255
  orrne r3, r3, lr
  strneh  r3, [r5, #12] @ movhi
  mov r3, r1, lsr #16
  ands  r3, r3, #255
  orrne r3, r3, lr
  strneh  r3, [r5, #10] @ movhi
  movs  r3, r1, lsr #24
  orrne r3, r3, lr
  strneh  r3, [r5, #8]  @ movhi
.L2099:
  add r8, r8, #1
  cmp sl, r8
  add r5, r5, #16
  add r6, r6, #2
  beq .L2590
.L2085:
  ldrh  r1, [r6, #0]
  mov r3, r1, asl #22
  mov r3, r3, lsr #22
  tst r1, #2048
  add r4, r2, r3, asl #6
  addne r4, r4, ip
  tst r1, #1024
  bne .L2591
  ldr r1, [r4, #0]
  cmp r1, #0
  beq .L2108
  ands  r3, r1, #255
  orrne r3, r3, lr
  strneh  r3, [r5, #0]  @ movhi
  mov r3, r1, lsr #8
  ands  r3, r3, #255
  orrne r3, r3, lr
  strneh  r3, [r5, #2]  @ movhi
  mov r3, r1, lsr #16
  ands  r3, r3, #255
  orrne r3, r3, lr
  strneh  r3, [r5, #4]  @ movhi
  movs  r3, r1, lsr #24
  orrne r3, r3, lr
  strneh  r3, [r5, #6]  @ movhi
.L2108:
  ldr r1, [r4, #4]
  cmp r1, #0
  beq .L2099
  ands  r3, r1, #255
  orrne r3, r3, lr
  strneh  r3, [r5, #8]  @ movhi
  mov r3, r1, lsr #8
  ands  r3, r3, #255
  orrne r3, r3, lr
  strneh  r3, [r5, #10] @ movhi
  mov r3, r1, lsr #16
  ands  r3, r3, #255
  orrne r3, r3, lr
  strneh  r3, [r5, #12] @ movhi
  movs  r3, r1, lsr #24
  orrne r3, r3, lr
  add r8, r8, #1
  strneh  r3, [r5, #14] @ movhi
  cmp sl, r8
  add r5, r5, #16
  add r6, r6, #2
  bne .L2085
.L2590:
  add fp, fp, sl, asl #4
  add r7, r7, sl, asl #1
.L2083:
  ldr r1, [sp, #4]
  ands  r4, r1, #7
  beq .L2556
  ldrh  r1, [r7, #0]
  mov r3, r1, asl #22
  mov r3, r3, lsr #22
  tst r1, #2048
  add r0, r2, r3, asl #6
  addne r0, r0, ip
  tst r1, #1024
  beq .L2129
  cmp r4, #3
  ldrls r0, [r0, #4]
  bls .L2143
  ldr r1, [r0, #4]
  cmp r1, #0
  beq .L2133
  ands  r3, r1, #255
  orrne r3, r3, lr
  strneh  r3, [fp, #6]  @ movhi
  mov r3, r1, lsr #8
  ands  r3, r3, #255
  orrne r3, r3, lr
  strneh  r3, [fp, #4]  @ movhi
  mov r3, r1, lsr #16
  ands  r3, r3, #255
  orrne r3, r3, lr
  strneh  r3, [fp, #2]  @ movhi
  movs  r3, r1, lsr #24
  orrne r3, r3, lr
  strneh  r3, [fp, #0]  @ movhi
.L2133:
  subs  r4, r4, #4
  ldr r0, [r0, #0]
  addne fp, fp, #8
  beq .L2556
.L2143:
  mov r1, #0
.L2144:
  movs  r3, r0, lsr #24
  mov r2, r1, asl #1
  orr r3, r3, lr
  add r1, r1, #1
  strneh  r3, [r2, fp]  @ movhi
  cmp r4, r1
  mov r0, r0, asl #8
  bhi .L2144
  b .L2556
.L2552:
  ands  r3, r0, #15
  orr r3, r2, r3
  mov r1, ip, asl #1
  orr r3, r3, lr
  add ip, ip, #1
  strneh  r3, [r1, fp]  @ movhi
  cmp r4, ip
  mov r0, r0, lsr #4
  bne .L2552
  b .L2556
.L2586:
  ldr r3, [sp, #4]
  rsb r5, r1, #8
  cmp r3, r5
  bcs .L2352
  ldrh  r4, [r7, #0]
  mov r3, r4, asl #22
  mov r3, r3, lsr #22
  tst r4, #2048
  add r0, sl, r3, asl #5
  mov r2, r4, lsr #12
  addne r0, r0, ip
  tst r4, #1024
  mov r2, r2, asl #4
  bne .L2592
  ldr r3, [sp, #4]
  ldr r0, [r0, #0]
  cmp r3, #0
  beq .L2556
  mov r3, r1, asl #2
  mov r0, r0, lsr r3
  mov ip, #0
.L2364:
  ands  r3, r0, #15
  orr r3, r2, r3
  mov r1, ip, asl #1
  orr r3, r3, lr
  strneh  r3, [r1, fp]  @ movhi
  ldr r1, [sp, #4]
  add ip, ip, #1
  cmp r1, ip
  mov r0, r0, lsr #4
  bne .L2364
  b .L2556
.L2581:
  ldrh  r6, [r7, #0]
  rsb r8, r1, #8
  mov r2, r6, asl #22
  mov r3, r6, lsr #12
  mov r2, r2, lsr #22
  tst r6, #2048
  mov r9, r3, asl #4
  add r3, sl, r2, asl #5
  addne r3, r3, ip
  tst r6, #1024
  beq .L2444
  cmp r8, #0
  ldr r2, [r3, #0]
  beq .L2446
  mov r3, r1, asl #2
  mov r1, r2, asl r3
  mov r4, #0
.L2448:
  movs  r3, r1, lsr #28
  orr r3, r9, r3
  mov r2, r4, asl #1
  orr r3, r3, lr
  add r4, r4, #1
  strneh  r3, [r2, fp]  @ movhi
  cmp r8, r4
  mov r1, r1, asl #4
  bne .L2448
  add fp, fp, r8, asl #1
.L2446:
  add r7, r7, #2
  b .L2441
.L2575:
  ldrh  r1, [r7, #0]
  rsb r8, r4, #8
  mov r3, r1, asl #22
  mov r3, r3, lsr #22
  tst r1, #2048
  add sl, r2, r3, asl #6
  addne sl, sl, ip
  ands  r6, r1, #1024
  beq .L2170
  cmp r4, #3
  bhi .L2593
  subs  r5, r8, #4
  ldr r1, [sl, #4]
  beq .L2181
  mov r3, r4, asl #3
  sub r3, r3, #32
  mov r1, r1, asl r3
  mov r6, #0
.L2183:
  movs  r3, r1, lsr #24
  mov r4, r6, asl #1
  orr r3, r3, lr
  add r6, r6, #1
  strneh  r3, [r4, fp]  @ movhi
  cmp r5, r6
  mov r1, r1, asl #8
  bne .L2183
  add r3, fp, r8, asl #1
  sub fp, r3, #8
.L2181:
  ldr r1, [sl, #0]
  cmp r1, #0
  beq .L2212
  ands  r3, r1, #255
  orrne r3, r3, lr
  strneh  r3, [fp, #6]  @ movhi
  mov r3, r1, lsr #8
  ands  r3, r3, #255
  orrne r3, r3, lr
  strneh  r3, [fp, #4]  @ movhi
  mov r3, r1, lsr #16
  ands  r3, r3, #255
  orrne r3, r3, lr
  strneh  r3, [fp, #2]  @ movhi
  movs  r3, r1, lsr #24
  orrne r3, r3, lr
  strneh  r3, [fp, #0]  @ movhi
.L2212:
  add fp, fp, #8
  mov r8, r5
.L2174:
  add r7, r7, #2
  b .L2167
.L2589:
  rsb r0, r4, #8
  cmp r1, r0
  bcs .L1971
  ldrh  r1, [r7, #0]
  mov r3, r1, asl #22
  mov r3, r3, lsr #22
  tst r1, #2048
  add r0, r2, r3, asl #6
  addne r0, r0, ip
  tst r1, #1024
  bne .L2594
  cmp r4, #3
  bls .L2004
  ldr ip, [sp, #4]
  ldr r0, [r0, #4]
  cmp ip, #0
  beq .L2556
  mov r3, r4, asl #3
  sub r3, r3, #32
  mov r0, r0, lsr r3
  mov r1, #0
.L2007:
  ands  r3, r0, #255
  orr r3, r3, lr
  mov r2, r1, asl #1
  strneh  r3, [r2, fp]  @ movhi
  ldr r3, [sp, #4]
  add r1, r1, #1
  cmp r3, r1
  mov r0, r0, lsr #8
  bne .L2007
  b .L2556
.L2600:
  .align  2
.L2599:
  .word io_registers
  .word map_widths
  .word vram
.L2435:
  ands  r3, r0, #15
  orr r3, r2, r3
  mov r1, ip, asl #1
  orr r3, r3, lr
  add ip, ip, #1
  strneh  r3, [r1, fp]  @ movhi
  cmp r4, ip
  mov r0, r0, lsr #4
  bne .L2435
  b .L2556
.L2312:
  cmp r4, #3
  ldrls r0, [r2, #0]
  bls .L2343
  ldr r1, [r2, #0]
  cmp r1, #0
  beq .L2333
  ands  r3, r1, #255
  orrne r3, r3, lr
  strneh  r3, [fp, #0]  @ movhi
  mov r3, r1, lsr #8
  ands  r3, r3, #255
  orrne r3, r3, lr
  strneh  r3, [fp, #2]  @ movhi
  mov r3, r1, lsr #16
  ands  r3, r3, #255
  orrne r3, r3, lr
  strneh  r3, [fp, #4]  @ movhi
  movs  r3, r1, lsr #24
  orrne r3, r3, lr
  strneh  r3, [fp, #6]  @ movhi
.L2333:
  subs  r4, r4, #4
  ldr r0, [r2, #4]
  addne fp, fp, #8
  beq .L2556
.L2343:
  mov r1, #0
.L2344:
  ands  r3, r0, #255
  mov r2, r1, asl #1
  orr r3, r3, lr
  add r1, r1, #1
  strneh  r3, [r2, fp]  @ movhi
  cmp r1, r4
  mov r0, r0, lsr #8
  bcc .L2344
  b .L2556
.L2129:
  cmp r4, #3
  ldrls r0, [r0, #0]
  bls .L2160
  ldr r1, [r0, #0]
  cmp r1, #0
  beq .L2150
  ands  r3, r1, #255
  orrne r3, r3, lr
  strneh  r3, [fp, #0]  @ movhi
  mov r3, r1, lsr #8
  ands  r3, r3, #255
  orrne r3, r3, lr
  strneh  r3, [fp, #2]  @ movhi
  mov r3, r1, lsr #16
  ands  r3, r3, #255
  orrne r3, r3, lr
  strneh  r3, [fp, #4]  @ movhi
  movs  r3, r1, lsr #24
  orrne r3, r3, lr
  strneh  r3, [fp, #6]  @ movhi
.L2150:
  subs  r4, r4, #4
  ldr r0, [r0, #4]
  addne fp, fp, #8
  beq .L2556
.L2160:
  mov r1, #0
.L2161:
  ands  r3, r0, #255
  mov r2, r1, asl #1
  orr r3, r3, lr
  add r1, r1, #1
  strneh  r3, [r2, fp]  @ movhi
  cmp r4, r1
  mov r0, r0, lsr #8
  bhi .L2161
  b .L2556
.L2352:
  ldrh  r4, [r7, #0]
  mov r2, r4, asl #22
  mov r3, r4, lsr #12
  mov r2, r2, lsr #22
  tst r4, #2048
  mov r0, r3, asl #4
  add r3, sl, r2, asl #5
  addne r3, r3, ip
  tst r4, #1024
  bne .L2595
  cmp r5, #0
  ldr r2, [r3, #0]
  beq .L2372
  mov r3, r1, asl #2
  mov r1, r2, lsr r3
  mov r4, #0
.L2380:
  ands  r3, r1, #15
  orr r3, r0, r3
  mov r2, r4, asl #1
  orr r3, r3, lr
  add r4, r4, #1
  strneh  r3, [r2, fp]  @ movhi
  cmp r5, r4
  mov r1, r1, lsr #4
  bne .L2380
.L2571:
  add fp, fp, r5, asl #1
.L2372:
  ldr r3, [sp, #4]
  add r7, r7, #2
  rsb r3, r5, r3
  str r3, [sp, #4]
  b .L2350
.L2444:
  cmp r8, #0
  ldr r2, [r3, #0]
  beq .L2446
  mov r3, r1, asl #2
  mov r1, r2, lsr r3
  mov r4, #0
.L2454:
  ands  r3, r1, #15
  orr r3, r9, r3
  mov r2, r4, asl #1
  orr r3, r3, lr
  add r4, r4, #1
  strneh  r3, [r2, fp]  @ movhi
  cmp r8, r4
  mov r1, r1, lsr #4
  bne .L2454
  add fp, fp, r8, asl #1
  b .L2446
.L2170:
  cmp r4, #3
  bhi .L2596
  subs  r5, r8, #4
  ldr r1, [sl, #0]
  beq .L2205
  mov r3, r4, asl #3
  mov r1, r1, lsr r3
  mov r6, #0
.L2207:
  ands  r3, r1, #255
  mov r4, r6, asl #1
  orr r3, r3, lr
  add r6, r6, #1
  strneh  r3, [r4, fp]  @ movhi
  cmp r5, r6
  mov r1, r1, lsr #8
  bne .L2207
  add r3, fp, r8, asl #1
  sub fp, r3, #8
.L2205:
  ldr r1, [sl, #4]
  cmp r1, #0
  beq .L2212
  ands  r3, r1, #255
  orrne r3, r3, lr
  strneh  r3, [fp, #0]  @ movhi
  mov r3, r1, lsr #8
  ands  r3, r3, #255
  orrne r3, r3, lr
  strneh  r3, [fp, #2]  @ movhi
  mov r3, r1, lsr #16
  ands  r3, r3, #255
  orrne r3, r3, lr
  strneh  r3, [fp, #4]  @ movhi
  movs  r3, r1, lsr #24
  orrne r3, r3, lr
  strneh  r3, [fp, #6]  @ movhi
  b .L2212
.L1971:
  ldrh  r1, [r7, #0]
  mov r3, r1, asl #22
  mov r3, r3, lsr #22
  tst r1, #2048
  add r6, r2, r3, asl #6
  addne r6, r6, ip
  ands  r5, r1, #1024
  bne .L2597
  cmp r4, #3
  bls .L2059
  cmp r0, #0
  ldr r1, [r6, #4]
  beq .L2036
  mov r3, r4, asl #3
  sub r3, r3, #32
  mov r1, r1, lsr r3
.L2062:
  ands  r3, r1, #255
  mov r4, r5, asl #1
  orr r3, r3, lr
  add r5, r5, #1
  strneh  r3, [r4, fp]  @ movhi
  cmp r0, r5
  mov r1, r1, lsr #8
  bne .L2062
.L2558:
  add fp, fp, r0, asl #1
.L2036:
  ldr r1, [sp, #4]
  add r7, r7, #2
  rsb r1, r0, r1
  str r1, [sp, #4]
  b .L1969
.L2593:
  cmp r8, #0
  ldr r1, [sl, #0]
  beq .L2174
  mov r3, r4, asl #3
  sub r3, r3, #32
  mov r1, r1, asl r3
  mov r6, #0
.L2176:
  movs  r3, r1, lsr #24
  mov r4, r6, asl #1
  orr r3, r3, lr
  add r6, r6, #1
  strneh  r3, [r4, fp]  @ movhi
  cmp r8, r6
  mov r1, r1, asl #8
  bne .L2176
  add fp, fp, r8, asl #1
.L2598:
  add r7, r7, #2
  b .L2167
.L2592:
  ldr ip, [sp, #4]
  ldr r0, [r0, #0]
  cmp ip, #0
  beq .L2556
  mov r3, r1, asl #2
  mov r0, r0, asl r3
  mov ip, #0
.L2359:
  movs  r3, r0, lsr #28
  orr r3, r2, r3
  mov r1, ip, asl #1
  orr r3, r3, lr
  strneh  r3, [r1, fp]  @ movhi
  ldr r1, [sp, #4]
  add ip, ip, #1
  cmp r1, ip
  mov r0, r0, asl #4
  bne .L2359
  b .L2556
.L2597:
  cmp r4, #3
  bls .L2034
  cmp r0, #0
  ldr r1, [r6, #0]
  beq .L2036
  mov r3, r4, asl #3
  sub r3, r3, #32
  mov r1, r1, asl r3
  mov r5, #0
.L2038:
  movs  r3, r1, lsr #24
  mov r4, r5, asl #1
  orr r3, r3, lr
  add r5, r5, #1
  strneh  r3, [r4, fp]  @ movhi
  cmp r0, r5
  mov r1, r1, asl #8
  bne .L2038
  b .L2558
.L2595:
  cmp r5, #0
  ldr r2, [r3, #0]
  beq .L2372
  mov r3, r1, asl #2
  mov r1, r2, asl r3
  mov r4, #0
.L2374:
  movs  r3, r1, lsr #28
  orr r3, r0, r3
  mov r2, r4, asl #1
  orr r3, r3, lr
  add r4, r4, #1
  strneh  r3, [r2, fp]  @ movhi
  cmp r5, r4
  mov r1, r1, asl #4
  bne .L2374
  b .L2571
.L2594:
  cmp r4, #3
  bls .L1977
  ldr r3, [sp, #4]
  ldr r0, [r0, #0]
  cmp r3, #0
  beq .L2556
  mov r3, r4, asl #3
  sub r3, r3, #32
  mov r0, r0, asl r3
  mov r1, #0
.L1981:
  movs  r3, r0, lsr #24
  ldr ip, [sp, #4]
  mov r2, r1, asl #1
  orr r3, r3, lr
  add r1, r1, #1
  strneh  r3, [r2, fp]  @ movhi
  cmp ip, r1
  mov r0, r0, asl #8
  bne .L1981
  b .L2556
.L2596:
  cmp r8, #0
  ldr r1, [sl, #4]
  beq .L2174
  mov r3, r4, asl #3
  sub r3, r3, #32
  mov r1, r1, lsr r3
.L2200:
  ands  r3, r1, #255
  mov r4, r6, asl #1
  orr r3, r3, lr
  add r6, r6, #1
  strneh  r3, [r4, fp]  @ movhi
  cmp r8, r6
  mov r1, r1, lsr #8
  bne .L2200
  add fp, fp, r8, asl #1
  b .L2598
.L1977:
  ldr ip, [sp, #4]
  mov r3, r4, asl #3
  ldr r1, [r0, #4]
  add r2, ip, r4
  sub r3, r3, #32
  cmp r2, #4
  mov r1, r1, asl r3
  bhi .L1985
  cmp ip, #0
  movne r0, #0
  beq .L2556
.L2000:
  movs  r3, r1, lsr #24
  orr r3, r3, lr
  mov r2, r0, asl #1
  strneh  r3, [r2, fp]  @ movhi
  ldr r3, [sp, #4]
  add r0, r0, #1
  cmp r3, r0
  mov r1, r1, asl #8
  bne .L2000
  b .L2556
.L2034:
  subs  r8, r0, #4
  ldr r1, [r6, #4]
  beq .L2043
  mov r3, r4, asl #3
  sub r3, r3, #32
  mov r1, r1, asl r3
  mov r5, #0
.L2045:
  movs  r3, r1, lsr #24
  mov r4, r5, asl #1
  orr r3, r3, lr
  add r5, r5, #1
  strneh  r3, [r4, fp]  @ movhi
  cmp r8, r5
  mov r1, r1, asl #8
  bne .L2045
  add r3, fp, r0, asl #1
  sub fp, r3, #8
.L2043:
  ldr r1, [r6, #0]
  cmp r1, #0
  beq .L2074
  ands  r3, r1, #255
  orrne r3, r3, lr
  strneh  r3, [fp, #6]  @ movhi
  mov r3, r1, lsr #8
  ands  r3, r3, #255
  orrne r3, r3, lr
  strneh  r3, [fp, #4]  @ movhi
  mov r3, r1, lsr #16
  ands  r3, r3, #255
  orrne r3, r3, lr
  strneh  r3, [fp, #2]  @ movhi
  movs  r3, r1, lsr #24
  orrne r3, r3, lr
  strneh  r3, [fp, #0]  @ movhi
.L2074:
  add fp, fp, #8
  b .L2036
.L2004:
  ldr ip, [sp, #4]
  ldr r3, [r0, #0]
  add r2, ip, r4
  cmp r2, #4
  mov r1, r4, asl #3
  mov r2, r3, lsr r1
  bhi .L2011
  cmp ip, #0
  movne r0, #0
  beq .L2556
.L2026:
  ands  r3, r2, #255
  orr r3, r3, lr
  mov r1, r0, asl #1
  strneh  r3, [r1, fp]  @ movhi
  ldr r3, [sp, #4]
  add r0, r0, #1
  cmp r3, r0
  mov r2, r2, lsr #8
  bne .L2026
  b .L2556
.L2059:
  subs  r8, r0, #4
  ldr r1, [r6, #0]
  beq .L2067
  mov r3, r4, asl #3
  mov r1, r1, lsr r3
  mov r5, #0
.L2069:
  ands  r3, r1, #255
  mov r4, r5, asl #1
  orr r3, r3, lr
  add r5, r5, #1
  strneh  r3, [r4, fp]  @ movhi
  cmp r8, r5
  mov r1, r1, lsr #8
  bne .L2069
  add r3, fp, r0, asl #1
  sub fp, r3, #8
.L2067:
  ldr r1, [r6, #4]
  cmp r1, #0
  beq .L2074
  ands  r3, r1, #255
  orrne r3, r3, lr
  strneh  r3, [fp, #0]  @ movhi
  mov r3, r1, lsr #8
  ands  r3, r3, #255
  orrne r3, r3, lr
  strneh  r3, [fp, #2]  @ movhi
  mov r3, r1, lsr #16
  ands  r3, r3, #255
  orrne r3, r3, lr
  strneh  r3, [fp, #4]  @ movhi
  movs  r3, r1, lsr #24
  orrne r3, r3, lr
  strneh  r3, [fp, #6]  @ movhi
  add fp, fp, #8
  b .L2036
.L1985:
  rsbs  r4, r4, #4
  beq .L1988
  mov ip, #0
.L1990:
  movs  r3, r1, lsr #24
  mov r2, ip, asl #1
  orr r3, r3, lr
  add ip, ip, #1
  strneh  r3, [r2, fp]  @ movhi
  cmp r4, ip
  mov r1, r1, asl #8
  bne .L1990
  add fp, fp, r4, asl #1
.L1988:
  ldr r1, [sp, #4]
  ldr r0, [r0, #0]
  subs  ip, r1, r4
  beq .L2556
  mov r1, #0
.L1996:
  movs  r3, r0, lsr #24
  mov r2, r1, asl #1
  orr r3, r3, lr
  add r1, r1, #1
  strneh  r3, [r2, fp]  @ movhi
  cmp ip, r1
  mov r0, r0, asl #8
  bne .L1996
  b .L2556
.L2011:
  rsbs  r4, r4, #4
  beq .L2014
  mov ip, #0
.L2016:
  ands  r3, r2, #255
  mov r1, ip, asl #1
  orr r3, r3, lr
  add ip, ip, #1
  strneh  r3, [r1, fp]  @ movhi
  cmp r4, ip
  mov r2, r2, lsr #8
  bne .L2016
  add fp, fp, r4, asl #1
.L2014:
  ldr r1, [sp, #4]
  ldr r0, [r0, #4]
  subs  ip, r1, r4
  beq .L2556
  mov r1, #0
.L2022:
  ands  r3, r0, #255
  mov r2, r1, asl #1
  orr r3, r3, lr
  add r1, r1, #1
  strneh  r3, [r2, fp]  @ movhi
  cmp ip, r1
  mov r0, r0, lsr #8
  bne .L2022
  b .L2556
  .size render_scanline_text_transparent_color16, .-render_scanline_text_transparent_color16
  .align  2
  .global render_scanline_text_base_color32
  .type render_scanline_text_base_color32, %function
render_scanline_text_base_color32:
  @ args = 0, pretend = 0, frame = 16
  @ frame_needed = 0, uses_anonymous_args = 0
  ldr ip, .L3398
  stmfd sp!, {r4, r5, r6, r7, r8, r9, sl, fp, lr}
  ldrh  r5, [ip, #80]
  add r7, r0, #7
  mov r8, r5, asr r0
  mov r7, r5, asr r7
  add r6, ip, r0, asl #2
  ldrh  r4, [ip, #6]
  ldrh  lr, [r6, #18]
  add ip, ip, r0, asl #1
  add fp, r4, lr
  ldrh  r9, [ip, #8]
  mov sl, fp, asl #23
  rsb r2, r1, r2
  sub sp, sp, #16
  mov sl, sl, lsr #23
  cmp sl, #255
  movls r4, #0
  movhi r4, #1
  ldrh  lr, [r6, #16]
  str r2, [sp, #12]
  mov r6, r9, lsr #14
  ldr r2, .L3398+4
  ands  r4, r4, r6, lsr #1
  and r7, r7, #2
  and r8, r8, #1
  add lr, lr, r1
  orr r8, r8, r7
  mov ip, r9, asl #3
  add r7, r3, r1, asl #2
  ldr r2, [r2, r6, asl #2]
  subne r3, sl, #256
  ldr r1, .L3398+8
  movne r3, r3, lsr #3
  moveq r3, fp, asl #3
  and ip, ip, #63488
  addne r3, r3, r2, lsr #3
  andeq r3, r3, #1984
  add ip, ip, r1
  mov lr, lr, asl #23
  addne r4, ip, r3, asl #6
  addeq r4, ip, r3
  mov r0, r5, lsr #12
  tst r6, #1
  mov lr, lr, lsr #23
  and r0, r0, #2
  mov r5, r5, asl #26
  andeq lr, lr, #255
  orr r0, r0, r5, lsr #31
  moveq r3, lr, lsr #3
  mov r0, r0, asl #9
  mov r8, r8, asl #9
  addeq fp, r4, r3, asl #1
  streq r4, [sp, #0]
  beq .L2609
  cmp lr, #255
  subhi lr, lr, #256
  movhi r3, lr, lsr #3
  movls r3, lr, lsr #3
  addhi r3, r4, r3, asl #1
  addls fp, r4, r3, asl #1
  addls r4, r4, #2048
  addhi fp, r3, #2048
  strhi r4, [sp, #0]
  strls r4, [sp, #0]
.L2609:
  tst r9, #128
  beq .L2610
  mov r2, r9, asl #12
  and r3, sl, #7
  and r1, lr, #255
  mov r3, r3, asl #3
  and r2, r2, #49152
  ldr r4, [sp, #12]
  rsb r9, r1, #256
  add r2, r2, r3
  ldr r1, .L3398+8
  mov r3, r3, asl #1
  rsb r3, r3, #56
  cmp r4, r9
  add r2, r2, r1
  str r3, [sp, #4]
  and lr, lr, #7
  bls .L3366
  cmp lr, #0
  moveq r6, lr
  bne .L3367
.L2850:
  rsb r3, r6, r9
  movs  sl, r3, lsr #3
  beq .L2914
  mov lr, r7
  mov r6, #0
  b .L2916
.L3368:
  ldr r1, [r5, #4]
  add r6, r6, #1
  ands  r3, r1, #255
  orrne r3, r8, r3
  strne r3, [lr, #12]
  mov r3, r1, lsr #8
  streq r0, [lr, #12]
  ands  r3, r3, #255
  orrne r3, r8, r3
  strne r3, [lr, #8]
  mov r3, r1, lsr #16
  streq r0, [lr, #8]
  ands  r3, r3, #255
  orrne r3, r8, r3
  strne r3, [lr, #4]
  streq r0, [lr, #4]
  movs  r3, r1, lsr #24
  orrne r3, r8, r3
  strne r3, [lr, #0]
  streq r0, [lr, #0]
  ldr r1, [r5, #0]
  ands  r3, r1, #255
  orrne r3, r8, r3
  strne r3, [lr, #28]
  mov r3, r1, lsr #8
  streq r0, [lr, #28]
  ands  r3, r3, #255
  orrne r3, r8, r3
  strne r3, [lr, #24]
  mov r3, r1, lsr #16
  streq r0, [lr, #24]
  ands  r3, r3, #255
  orrne r3, r8, r3
  strne r3, [lr, #20]
  streq r0, [lr, #20]
  movs  r3, r1, lsr #24
  orrne r3, r8, r3
  strne r3, [lr, #16]
  streq r0, [lr, #16]
  cmp sl, r6
  add lr, lr, #32
  beq .L2968
.L3369:
  add fp, fp, #2
.L2916:
  ldrh  r1, [fp, #0]
  mov r3, r1, asl #22
  mov r3, r3, lsr #22
  tst r1, #2048
  add r5, r2, r3, asl #6
  ldrne r3, [sp, #4]
  addne r5, r5, r3
  tst r1, #1024
  bne .L3368
  ldr r1, [r5, #0]
  add r6, r6, #1
  ands  r3, r1, #255
  orrne r3, r8, r3
  strne r3, [lr, #0]
  mov r3, r1, lsr #8
  streq r0, [lr, #0]
  ands  r3, r3, #255
  orrne r3, r8, r3
  strne r3, [lr, #4]
  mov r3, r1, lsr #16
  streq r0, [lr, #4]
  ands  r3, r3, #255
  orrne r3, r8, r3
  strne r3, [lr, #8]
  streq r0, [lr, #8]
  movs  r3, r1, lsr #24
  orrne r3, r8, r3
  strne r3, [lr, #12]
  streq r0, [lr, #12]
  ldr r1, [r5, #4]
  ands  r3, r1, #255
  orrne r3, r8, r3
  strne r3, [lr, #16]
  mov r3, r1, lsr #8
  streq r0, [lr, #16]
  ands  r3, r3, #255
  orrne r3, r8, r3
  strne r3, [lr, #20]
  mov r3, r1, lsr #16
  streq r0, [lr, #20]
  ands  r3, r3, #255
  orrne r3, r8, r3
  strne r3, [lr, #24]
  streq r0, [lr, #24]
  movs  r3, r1, lsr #24
  orrne r3, r8, r3
  strne r3, [lr, #28]
  streq r0, [lr, #28]
  cmp sl, r6
  add lr, lr, #32
  bne .L3369
.L2968:
  add r7, r7, sl, asl #5
.L2914:
  ldr r4, [sp, #12]
  rsb r9, r9, r4
  movs  r4, r9, lsr #3
  ldreq r3, [sp, #0]
  beq .L2972
  ldr r6, [sp, #0]
  mov lr, r7
  mov sl, #0
  b .L2973
.L3371:
  ldr r1, [r5, #4]
  add sl, sl, #1
  ands  r3, r1, #255
  orrne r3, r8, r3
  strne r3, [lr, #12]
  mov r3, r1, lsr #8
  streq r0, [lr, #12]
  ands  r3, r3, #255
  orrne r3, r8, r3
  strne r3, [lr, #8]
  mov r3, r1, lsr #16
  streq r0, [lr, #8]
  ands  r3, r3, #255
  orrne r3, r8, r3
  strne r3, [lr, #4]
  streq r0, [lr, #4]
  movs  r3, r1, lsr #24
  orrne r3, r8, r3
  strne r3, [lr, #0]
  streq r0, [lr, #0]
  ldr r1, [r5, #0]
  add r6, r6, #2
  ands  r3, r1, #255
  orrne r3, r8, r3
  strne r3, [lr, #28]
  mov r3, r1, lsr #8
  streq r0, [lr, #28]
  ands  r3, r3, #255
  orrne r3, r8, r3
  strne r3, [lr, #24]
  mov r3, r1, lsr #16
  streq r0, [lr, #24]
  ands  r3, r3, #255
  orrne r3, r8, r3
  strne r3, [lr, #20]
  streq r0, [lr, #20]
  movs  r3, r1, lsr #24
  orrne r3, r8, r3
  strne r3, [lr, #16]
  streq r0, [lr, #16]
  cmp r4, sl
  add lr, lr, #32
  beq .L3370
.L2973:
  ldrh  r1, [r6, #0]
  mov r3, r1, asl #22
  mov r3, r3, lsr #22
  tst r1, #2048
  add r5, r2, r3, asl #6
  ldrne r3, [sp, #4]
  addne r5, r5, r3
  tst r1, #1024
  bne .L3371
  ldr r1, [r5, #0]
  add sl, sl, #1
  ands  r3, r1, #255
  orrne r3, r8, r3
  strne r3, [lr, #0]
  mov r3, r1, lsr #8
  streq r0, [lr, #0]
  ands  r3, r3, #255
  orrne r3, r8, r3
  strne r3, [lr, #4]
  mov r3, r1, lsr #16
  streq r0, [lr, #4]
  ands  r3, r3, #255
  orrne r3, r8, r3
  strne r3, [lr, #8]
  streq r0, [lr, #8]
  movs  r3, r1, lsr #24
  orrne r3, r8, r3
  strne r3, [lr, #12]
  streq r0, [lr, #12]
  ldr r1, [r5, #4]
  add r6, r6, #2
  ands  r3, r1, #255
  orrne r3, r8, r3
  strne r3, [lr, #16]
  mov r3, r1, lsr #8
  streq r0, [lr, #16]
  ands  r3, r3, #255
  orrne r3, r8, r3
  strne r3, [lr, #20]
  mov r3, r1, lsr #16
  streq r0, [lr, #20]
  ands  r3, r3, #255
  orrne r3, r8, r3
  strne r3, [lr, #24]
  streq r0, [lr, #24]
  movs  r3, r1, lsr #24
  orrne r3, r8, r3
  strne r3, [lr, #28]
  streq r0, [lr, #28]
  cmp r4, sl
  add lr, lr, #32
  bne .L2973
.L3370:
  ldr r1, [sp, #0]
  add r7, r7, r4, asl #5
  add r3, r1, r4, asl #1
.L2972:
  ands  lr, r9, #7
  beq .L3345
  ldrh  r4, [r3, #0]
  mov r3, r4, asl #22
  mov r3, r3, lsr #22
  tst r4, #2048
  add r2, r2, r3, asl #6
  ldrne r3, [sp, #4]
  addne r2, r2, r3
  tst r4, #1024
  beq .L3029
  cmp lr, #3
  ldrls r2, [r2, #4]
  bhi .L3372
.L3046:
  mov r1, #0
.L3047:
  movs  r3, r2, lsr #24
  orr r3, r8, r3
  add r1, r1, #1
  strne r3, [r7, #0]
  streq r0, [r7, #0]
  cmp r1, lr
  mov r2, r2, asl #8
  add r7, r7, #4
  bcc .L3047
.L3345:
  add sp, sp, #16
  ldmfd sp!, {r4, r5, r6, r7, r8, r9, sl, fp, pc}
.L2610:
  mov r2, r9, asl #12
  and r3, sl, #7
  and r1, lr, #255
  mov r3, r3, asl #2
  and r2, r2, #49152
  ldr r4, [sp, #12]
  rsb r9, r1, #256
  add r2, r2, r3
  ldr r1, .L3398+8
  mov r3, r3, asl #1
  rsb r3, r3, #28
  cmp r4, r9
  add ip, r2, r1
  str r3, [sp, #8]
  and r1, lr, #7
  bls .L3373
  cmp r1, #0
  moveq r6, r1
  bne .L3374
.L3190:
  rsb r3, r6, r9
  movs  sl, r3, lsr #3
  beq .L3210
  mov lr, r7
  mov r6, #0
  b .L3212
.L3375:
  ldr r2, [r3, #0]
  cmp r2, #0
  beq .L3243
  ands  r3, r2, #15
  orrne r3, r8, r3
  orrne r3, r5, r3
  strne r3, [lr, #28]
  mov r3, r2, lsr #4
  streq r0, [lr, #28]
  ands  r3, r3, #15
  orrne r3, r8, r3
  orrne r3, r5, r3
  strne r3, [lr, #24]
  mov r3, r2, lsr #8
  streq r0, [lr, #24]
  ands  r3, r3, #15
  orrne r3, r8, r3
  orrne r3, r5, r3
  strne r3, [lr, #20]
  mov r3, r2, lsr #12
  streq r0, [lr, #20]
  ands  r3, r3, #15
  orrne r3, r8, r3
  orrne r3, r5, r3
  strne r3, [lr, #16]
  mov r3, r2, lsr #16
  streq r0, [lr, #16]
  ands  r3, r3, #15
  orrne r3, r8, r3
  orrne r3, r5, r3
  strne r3, [lr, #12]
  mov r3, r2, lsr #20
  streq r0, [lr, #12]
  ands  r3, r3, #15
  orrne r3, r8, r3
  orrne r3, r5, r3
  strne r3, [lr, #8]
  mov r3, r2, lsr #24
  streq r0, [lr, #8]
  ands  r3, r3, #15
  orrne r3, r8, r3
  orrne r3, r5, r3
  strne r3, [lr, #4]
  streq r0, [lr, #4]
  movs  r3, r2, lsr #28
  orrne r3, r8, r3
  orrne r3, r5, r3
  strne r3, [lr, #0]
  streq r0, [lr, #0]
.L3242:
  add r6, r6, #1
  cmp sl, r6
  add lr, lr, #32
  beq .L3268
.L3376:
  add fp, fp, #2
.L3212:
  ldrh  r1, [fp, #0]
  tst r1, #2048
  mov r2, r1, asl #22
  mov r3, r1, lsr #12
  ldrne r4, [sp, #8]
  mov r2, r2, lsr #22
  mov r5, r3, asl #4
  add r3, ip, r2, asl #5
  addne r3, r3, r4
  tst r1, #1024
  bne .L3375
  ldr r2, [r3, #0]
  cmp r2, #0
  beq .L3243
  ands  r3, r2, #15
  orrne r3, r8, r3
  orrne r3, r5, r3
  strne r3, [lr, #0]
  mov r3, r2, lsr #4
  streq r0, [lr, #0]
  ands  r3, r3, #15
  orrne r3, r8, r3
  orrne r3, r5, r3
  strne r3, [lr, #4]
  mov r3, r2, lsr #8
  streq r0, [lr, #4]
  ands  r3, r3, #15
  orrne r3, r8, r3
  orrne r3, r5, r3
  strne r3, [lr, #8]
  mov r3, r2, lsr #12
  streq r0, [lr, #8]
  ands  r3, r3, #15
  orrne r3, r8, r3
  orrne r3, r5, r3
  strne r3, [lr, #12]
  mov r3, r2, lsr #16
  streq r0, [lr, #12]
  ands  r3, r3, #15
  orrne r3, r8, r3
  orrne r3, r5, r3
  strne r3, [lr, #16]
  mov r3, r2, lsr #20
  streq r0, [lr, #16]
  ands  r3, r3, #15
  orrne r3, r8, r3
  orrne r3, r5, r3
  strne r3, [lr, #20]
  mov r3, r2, lsr #24
  streq r0, [lr, #20]
  ands  r3, r3, #15
  orrne r3, r8, r3
  orrne r3, r5, r3
  strne r3, [lr, #24]
  streq r0, [lr, #24]
  movs  r3, r2, lsr #28
  orrne r3, r8, r3
  orrne r3, r5, r3
  strne r3, [lr, #28]
  bne .L3242
  str r0, [lr, #28]
.L3386:
  add r6, r6, #1
  cmp sl, r6
  add lr, lr, #32
  bne .L3376
.L3268:
  add r7, r7, sl, asl #5
.L3210:
  ldr r1, [sp, #12]
  rsb r9, r9, r1
  movs  r4, r9, lsr #3
  ldreq r2, [sp, #0]
  beq .L3272
  ldr r6, [sp, #0]
  mov lr, r7
  mov sl, #0
  b .L3273
.L3378:
  ldr r2, [r3, #0]
  cmp r2, #0
  beq .L3304
  ands  r3, r2, #15
  orrne r3, r8, r3
  orrne r3, r5, r3
  strne r3, [lr, #28]
  mov r3, r2, lsr #4
  streq r0, [lr, #28]
  ands  r3, r3, #15
  orrne r3, r8, r3
  orrne r3, r5, r3
  strne r3, [lr, #24]
  mov r3, r2, lsr #8
  streq r0, [lr, #24]
  ands  r3, r3, #15
  orrne r3, r8, r3
  orrne r3, r5, r3
  strne r3, [lr, #20]
  mov r3, r2, lsr #12
  streq r0, [lr, #20]
  ands  r3, r3, #15
  orrne r3, r8, r3
  orrne r3, r5, r3
  strne r3, [lr, #16]
  mov r3, r2, lsr #16
  streq r0, [lr, #16]
  ands  r3, r3, #15
  orrne r3, r8, r3
  orrne r3, r5, r3
  strne r3, [lr, #12]
  mov r3, r2, lsr #20
  streq r0, [lr, #12]
  ands  r3, r3, #15
  orrne r3, r8, r3
  orrne r3, r5, r3
  strne r3, [lr, #8]
  mov r3, r2, lsr #24
  streq r0, [lr, #8]
  ands  r3, r3, #15
  orrne r3, r8, r3
  orrne r3, r5, r3
  strne r3, [lr, #4]
  streq r0, [lr, #4]
  movs  r3, r2, lsr #28
  orrne r3, r8, r3
  orrne r3, r5, r3
  strne r3, [lr, #0]
  streq r0, [lr, #0]
.L3303:
  add sl, sl, #1
  cmp r4, sl
  add lr, lr, #32
  add r6, r6, #2
  beq .L3377
.L3273:
  ldrh  r1, [r6, #0]
  mov r2, r1, asl #22
  mov r2, r2, lsr #22
  tst r1, #2048
  mov r3, r1, lsr #12
  mov r5, r3, asl #4
  add r3, ip, r2, asl #5
  ldrne r2, [sp, #8]
  addne r3, r3, r2
  tst r1, #1024
  bne .L3378
  ldr r2, [r3, #0]
  cmp r2, #0
  beq .L3304
  ands  r3, r2, #15
  orrne r3, r8, r3
  orrne r3, r5, r3
  strne r3, [lr, #0]
  mov r3, r2, lsr #4
  streq r0, [lr, #0]
  ands  r3, r3, #15
  orrne r3, r8, r3
  orrne r3, r5, r3
  strne r3, [lr, #4]
  mov r3, r2, lsr #8
  streq r0, [lr, #4]
  ands  r3, r3, #15
  orrne r3, r8, r3
  orrne r3, r5, r3
  strne r3, [lr, #8]
  mov r3, r2, lsr #12
  streq r0, [lr, #8]
  ands  r3, r3, #15
  orrne r3, r8, r3
  orrne r3, r5, r3
  strne r3, [lr, #12]
  mov r3, r2, lsr #16
  streq r0, [lr, #12]
  ands  r3, r3, #15
  orrne r3, r8, r3
  orrne r3, r5, r3
  strne r3, [lr, #16]
  mov r3, r2, lsr #20
  streq r0, [lr, #16]
  ands  r3, r3, #15
  orrne r3, r8, r3
  orrne r3, r5, r3
  strne r3, [lr, #20]
  mov r3, r2, lsr #24
  streq r0, [lr, #20]
  ands  r3, r3, #15
  orrne r3, r8, r3
  orrne r3, r5, r3
  strne r3, [lr, #24]
  streq r0, [lr, #24]
  movs  r3, r2, lsr #28
  orrne r3, r8, r3
  orrne r3, r5, r3
  strne r3, [lr, #28]
  bne .L3303
  str r0, [lr, #28]
.L3387:
  add sl, sl, #1
  cmp r4, sl
  add lr, lr, #32
  add r6, r6, #2
  bne .L3273
.L3377:
  ldr r3, [sp, #0]
  add r7, r7, r4, asl #5
  add r2, r3, r4, asl #1
.L3272:
  ands  lr, r9, #7
  beq .L3345
  ldrh  r4, [r2, #0]
  tst r4, #2048
  mov r3, r4, asl #22
  ldrne r1, [sp, #8]
  mov r3, r3, lsr #22
  add r3, ip, r3, asl #5
  addne r3, r3, r1
  mov r2, r4, lsr #12
  tst r4, #1024
  mov ip, r2, asl #4
  moveq r1, #0
  ldreq r2, [r3, #0]
  beq .L3340
  ldr r2, [r3, #0]
  mov r1, #0
.L3335:
  movs  r3, r2, lsr #28
  orr r3, r8, r3
  orr r3, ip, r3
  add r1, r1, #1
  strne r3, [r7, #0]
  streq r0, [r7, #0]
  cmp lr, r1
  mov r2, r2, asl #4
  add r7, r7, #4
  bne .L3335
  b .L3345
.L3373:
  cmp r1, #0
  bne .L3379
.L3075:
  ldr r4, [sp, #12]
  movs  r9, r4, lsr #3
  beq .L3114
  mov lr, r7
  mov r6, fp
  mov sl, #0
  b .L3116
.L3381:
  ldr r2, [r3, #0]
  cmp r2, #0
  beq .L3147
  ands  r3, r2, #15
  orrne r3, r8, r3
  orrne r3, r5, r3
  strne r3, [lr, #28]
  mov r3, r2, lsr #4
  streq r0, [lr, #28]
  ands  r3, r3, #15
  orrne r3, r8, r3
  orrne r3, r5, r3
  strne r3, [lr, #24]
  mov r3, r2, lsr #8
  streq r0, [lr, #24]
  ands  r3, r3, #15
  orrne r3, r8, r3
  orrne r3, r5, r3
  strne r3, [lr, #20]
  mov r3, r2, lsr #12
  streq r0, [lr, #20]
  ands  r3, r3, #15
  orrne r3, r8, r3
  orrne r3, r5, r3
  strne r3, [lr, #16]
  mov r3, r2, lsr #16
  streq r0, [lr, #16]
  ands  r3, r3, #15
  orrne r3, r8, r3
  orrne r3, r5, r3
  strne r3, [lr, #12]
  mov r3, r2, lsr #20
  streq r0, [lr, #12]
  ands  r3, r3, #15
  orrne r3, r8, r3
  orrne r3, r5, r3
  strne r3, [lr, #8]
  mov r3, r2, lsr #24
  streq r0, [lr, #8]
  ands  r3, r3, #15
  orrne r3, r8, r3
  orrne r3, r5, r3
  strne r3, [lr, #4]
  streq r0, [lr, #4]
  movs  r3, r2, lsr #28
  orrne r3, r8, r3
  orrne r3, r5, r3
  strne r3, [lr, #0]
  streq r0, [lr, #0]
.L3146:
  add sl, sl, #1
  cmp r9, sl
  add lr, lr, #32
  add r6, r6, #2
  beq .L3380
.L3116:
  ldrh  r1, [r6, #0]
  mov r2, r1, asl #22
  mov r2, r2, lsr #22
  tst r1, #2048
  mov r3, r1, lsr #12
  mov r5, r3, asl #4
  add r3, ip, r2, asl #5
  ldrne r2, [sp, #8]
  addne r3, r3, r2
  tst r1, #1024
  bne .L3381
  ldr r2, [r3, #0]
  cmp r2, #0
  beq .L3147
  ands  r3, r2, #15
  orrne r3, r8, r3
  orrne r3, r5, r3
  strne r3, [lr, #0]
  mov r3, r2, lsr #4
  streq r0, [lr, #0]
  ands  r3, r3, #15
  orrne r3, r8, r3
  orrne r3, r5, r3
  strne r3, [lr, #4]
  mov r3, r2, lsr #8
  streq r0, [lr, #4]
  ands  r3, r3, #15
  orrne r3, r8, r3
  orrne r3, r5, r3
  strne r3, [lr, #8]
  mov r3, r2, lsr #12
  streq r0, [lr, #8]
  ands  r3, r3, #15
  orrne r3, r8, r3
  orrne r3, r5, r3
  strne r3, [lr, #12]
  mov r3, r2, lsr #16
  streq r0, [lr, #12]
  ands  r3, r3, #15
  orrne r3, r8, r3
  orrne r3, r5, r3
  strne r3, [lr, #16]
  mov r3, r2, lsr #20
  streq r0, [lr, #16]
  ands  r3, r3, #15
  orrne r3, r8, r3
  orrne r3, r5, r3
  strne r3, [lr, #20]
  mov r3, r2, lsr #24
  streq r0, [lr, #20]
  ands  r3, r3, #15
  orrne r3, r8, r3
  orrne r3, r5, r3
  strne r3, [lr, #24]
  streq r0, [lr, #24]
  movs  r3, r2, lsr #28
  orrne r3, r8, r3
  orrne r3, r5, r3
  strne r3, [lr, #28]
  bne .L3146
  str r0, [lr, #28]
.L3391:
  add sl, sl, #1
  cmp r9, sl
  add lr, lr, #32
  add r6, r6, #2
  bne .L3116
.L3380:
  add r7, r7, r9, asl #5
  add fp, fp, r9, asl #1
.L3114:
  ldr r3, [sp, #12]
  ands  lr, r3, #7
  beq .L3345
  ldrh  r1, [fp, #0]
  tst r1, #2048
  mov r3, r1, asl #22
  ldrne r4, [sp, #8]
  mov r3, r3, lsr #22
  add r3, ip, r3, asl #5
  mov r2, r1, lsr #12
  addne r3, r3, r4
  tst r1, #1024
  mov ip, r2, asl #4
  moveq r1, #0
  ldreq r2, [r3, #0]
  beq .L3183
  ldr r2, [r3, #0]
  mov r1, #0
.L3178:
  movs  r3, r2, lsr #28
  orr r3, r8, r3
  orr r3, ip, r3
  add r1, r1, #1
  strne r3, [r7, #0]
  streq r0, [r7, #0]
  cmp lr, r1
  mov r2, r2, asl #4
  add r7, r7, #4
  bne .L3178
  b .L3345
.L3366:
  cmp lr, #0
  bne .L3382
.L2614:
  ldr r3, [sp, #12]
  movs  r9, r3, lsr #3
  beq .L2746
  mov lr, r7
  mov r6, fp
  mov sl, #0
  b .L2748
.L3384:
  ldr r1, [r5, #4]
  add sl, sl, #1
  ands  r3, r1, #255
  orrne r3, r8, r3
  strne r3, [lr, #12]
  mov r3, r1, lsr #8
  streq r0, [lr, #12]
  ands  r3, r3, #255
  orrne r3, r8, r3
  strne r3, [lr, #8]
  mov r3, r1, lsr #16
  streq r0, [lr, #8]
  ands  r3, r3, #255
  orrne r3, r8, r3
  strne r3, [lr, #4]
  streq r0, [lr, #4]
  movs  r3, r1, lsr #24
  orrne r3, r8, r3
  strne r3, [lr, #0]
  streq r0, [lr, #0]
  ldr r1, [r5, #0]
  add r6, r6, #2
  ands  r3, r1, #255
  orrne r3, r8, r3
  strne r3, [lr, #28]
  mov r3, r1, lsr #8
  streq r0, [lr, #28]
  ands  r3, r3, #255
  orrne r3, r8, r3
  strne r3, [lr, #24]
  mov r3, r1, lsr #16
  streq r0, [lr, #24]
  ands  r3, r3, #255
  orrne r3, r8, r3
  strne r3, [lr, #20]
  streq r0, [lr, #20]
  movs  r3, r1, lsr #24
  orrne r3, r8, r3
  strne r3, [lr, #16]
  streq r0, [lr, #16]
  cmp r9, sl
  add lr, lr, #32
  beq .L3383
.L2748:
  ldrh  r1, [r6, #0]
  tst r1, #2048
  mov r3, r1, asl #22
  ldrne r4, [sp, #4]
  mov r3, r3, lsr #22
  add r5, r2, r3, asl #6
  addne r5, r5, r4
  tst r1, #1024
  bne .L3384
  ldr r1, [r5, #0]
  add sl, sl, #1
  ands  r3, r1, #255
  orrne r3, r8, r3
  strne r3, [lr, #0]
  mov r3, r1, lsr #8
  streq r0, [lr, #0]
  ands  r3, r3, #255
  orrne r3, r8, r3
  strne r3, [lr, #4]
  mov r3, r1, lsr #16
  streq r0, [lr, #4]
  ands  r3, r3, #255
  orrne r3, r8, r3
  strne r3, [lr, #8]
  streq r0, [lr, #8]
  movs  r3, r1, lsr #24
  orrne r3, r8, r3
  strne r3, [lr, #12]
  streq r0, [lr, #12]
  ldr r1, [r5, #4]
  add r6, r6, #2
  ands  r3, r1, #255
  orrne r3, r8, r3
  strne r3, [lr, #16]
  mov r3, r1, lsr #8
  streq r0, [lr, #16]
  ands  r3, r3, #255
  orrne r3, r8, r3
  strne r3, [lr, #20]
  mov r3, r1, lsr #16
  streq r0, [lr, #20]
  ands  r3, r3, #255
  orrne r3, r8, r3
  strne r3, [lr, #24]
  streq r0, [lr, #24]
  movs  r3, r1, lsr #24
  orrne r3, r8, r3
  strne r3, [lr, #28]
  streq r0, [lr, #28]
  cmp r9, sl
  add lr, lr, #32
  bne .L2748
.L3383:
  add r7, r7, r9, asl #5
  add fp, fp, r9, asl #1
.L2746:
  ldr r1, [sp, #12]
  ands  lr, r1, #7
  beq .L3345
  ldrh  r1, [fp, #0]
  mov r3, r1, asl #22
  mov r3, r3, lsr #22
  tst r1, #2048
  add r2, r2, r3, asl #6
  ldrne r3, [sp, #4]
  addne r2, r2, r3
  tst r1, #1024
  beq .L2804
  cmp lr, #3
  ldrls r2, [r2, #4]
  bhi .L3385
.L2821:
  mov r1, #0
.L2822:
  movs  r3, r2, lsr #24
  orr r3, r8, r3
  add r1, r1, #1
  strne r3, [r7, #0]
  streq r0, [r7, #0]
  cmp lr, r1
  mov r2, r2, asl #8
  add r7, r7, #4
  bhi .L2822
  b .L3345
.L3243:
  str r0, [lr, #0]
  str r0, [lr, #4]
  str r0, [lr, #8]
  str r0, [lr, #12]
  str r0, [lr, #16]
  str r0, [lr, #20]
  str r0, [lr, #24]
  str r0, [lr, #28]
  b .L3386
.L3304:
  str r0, [lr, #0]
  str r0, [lr, #4]
  str r0, [lr, #8]
  str r0, [lr, #12]
  str r0, [lr, #16]
  str r0, [lr, #20]
  str r0, [lr, #24]
  str r0, [lr, #28]
  b .L3387
.L3340:
  ands  r3, r2, #15
  orr r3, r8, r3
  orr r3, ip, r3
  add r1, r1, #1
  strne r3, [r7, #0]
  streq r0, [r7, #0]
  cmp lr, r1
  mov r2, r2, lsr #4
  add r7, r7, #4
  bne .L3340
  b .L3345
.L3379:
  rsb r5, r1, #8
  cmp r4, r5
  bcs .L3077
  ldrh  lr, [fp, #0]
  mov r3, lr, asl #22
  mov r3, r3, lsr #22
  tst lr, #2048
  add ip, ip, r3, asl #5
  ldrne r3, [sp, #8]
  mov r2, lr, lsr #12
  addne ip, ip, r3
  tst lr, #1024
  mov r2, r2, asl #4
  bne .L3388
  ldr r4, [sp, #12]
  ldr ip, [ip, #0]
  cmp r4, #0
  beq .L3345
  mov r3, r1, asl #2
  mov r1, ip, lsr r3
  mov ip, #0
.L3090:
  ands  r3, r1, #15
  orr r3, r8, r3
  orr r3, r2, r3
  strne r3, [r7, #0]
  ldr r3, [sp, #12]
  add ip, ip, #1
  streq r0, [r7, #0]
  cmp r3, ip
  mov r1, r1, lsr #4
  add r7, r7, #4
  bne .L3090
  b .L3345
.L3374:
  ldrh  r5, [fp, #0]
  rsb r6, r1, #8
  mov r2, r5, asl #22
  mov r2, r2, lsr #22
  tst r5, #2048
  mov r3, r5, lsr #12
  mov sl, r3, asl #4
  add r3, ip, r2, asl #5
  ldrne r2, [sp, #8]
  addne r3, r3, r2
  tst r5, #1024
  beq .L3193
  cmp r6, #0
  ldr r2, [r3, #0]
  beq .L3195
  mov r3, r1, asl #2
  mov r1, r2, asl r3
  mov lr, #0
  mov r2, r7
.L3197:
  movs  r3, r1, lsr #28
  orr r3, r8, r3
  orr r3, sl, r3
  add lr, lr, #1
  strne r3, [r2, #0]
  streq r0, [r2, #0]
  cmp r6, lr
  mov r1, r1, asl #4
  add r2, r2, #4
  bne .L3197
  add r7, r7, r6, asl #2
.L3195:
  add fp, fp, #2
  b .L3190
.L3399:
  .align  2
.L3398:
  .word io_registers
  .word map_widths
  .word vram
.L3367:
  ldrh  r1, [fp, #0]
  rsb r6, lr, #8
  tst r1, #2048
  mov r3, r1, asl #22
  ldrne r4, [sp, #4]
  mov r3, r3, lsr #22
  add sl, r2, r3, asl #6
  addne sl, sl, r4
  ands  r5, r1, #1024
  beq .L2853
  cmp lr, #3
  bhi .L3389
  subs  ip, r6, #4
  ldr r1, [sl, #4]
  beq .L2865
  mov r3, lr, asl #3
  sub r3, r3, #32
  mov r1, r1, asl r3
  mov lr, r7
  mov r5, #0
.L2867:
  movs  r3, r1, lsr #24
  orr r3, r8, r3
  add r5, r5, #1
  strne r3, [lr, #0]
  streq r0, [lr, #0]
  cmp ip, r5
  mov r1, r1, asl #8
  add lr, lr, #4
  bne .L2867
  add r3, r7, r6, asl #2
  sub r7, r3, #16
.L2865:
  ldr r1, [sl, #0]
  ands  r3, r1, #255
  orrne r3, r8, r3
  strne r3, [r7, #12]
  mov r3, r1, lsr #8
  streq r0, [r7, #12]
  ands  r3, r3, #255
  orrne r3, r8, r3
  strne r3, [r7, #8]
  mov r3, r1, lsr #16
  streq r0, [r7, #8]
  ands  r3, r3, #255
  orrne r3, r8, r3
  strne r3, [r7, #4]
  streq r0, [r7, #4]
  movs  r3, r1, lsr #24
  orrne r3, r8, r3
  strne r3, [r7, #0]
  streq r0, [r7, #0]
.L2913:
  add r7, r7, #16
  mov r6, ip
.L2857:
  add fp, fp, #2
  b .L2850
.L3382:
  ldr r3, [sp, #12]
  rsb r4, lr, #8
  cmp r3, r4
  bcs .L2616
  ldrh  r1, [fp, #0]
  tst r1, #2048
  mov r3, r1, asl #22
  ldrne r4, [sp, #4]
  mov r3, r3, lsr #22
  add ip, r2, r3, asl #6
  addne ip, ip, r4
  tst r1, #1024
  bne .L3390
  cmp lr, #3
  bls .L2653
  ldr r4, [sp, #12]
  ldr r2, [ip, #4]
  cmp r4, #0
  beq .L3345
  mov r3, lr, asl #3
  sub r3, r3, #32
  mov r1, r2, lsr r3
  mov r2, #0
.L2656:
  ands  r3, r1, #255
  orr r3, r8, r3
  strne r3, [r7, #0]
  ldr r3, [sp, #12]
  add r2, r2, #1
  streq r0, [r7, #0]
  cmp r3, r2
  mov r1, r1, lsr #8
  add r7, r7, #4
  bne .L2656
  b .L3345
.L3147:
  str r0, [lr, #0]
  str r0, [lr, #4]
  str r0, [lr, #8]
  str r0, [lr, #12]
  str r0, [lr, #16]
  str r0, [lr, #20]
  str r0, [lr, #24]
  str r0, [lr, #28]
  b .L3391
.L3183:
  ands  r3, r2, #15
  orr r3, r8, r3
  orr r3, ip, r3
  add r1, r1, #1
  strne r3, [r7, #0]
  streq r0, [r7, #0]
  cmp lr, r1
  mov r2, r2, lsr #4
  add r7, r7, #4
  bne .L3183
  b .L3345
.L3029:
  cmp lr, #3
  ldrls r2, [r2, #0]
  bhi .L3392
.L3067:
  mov r1, #0
.L3068:
  ands  r3, r2, #255
  orr r3, r8, r3
  add r1, r1, #1
  strne r3, [r7, #0]
  streq r0, [r7, #0]
  cmp lr, r1
  mov r2, r2, lsr #8
  add r7, r7, #4
  bhi .L3068
  b .L3345
.L2804:
  cmp lr, #3
  ldrls r2, [r2, #0]
  bhi .L3393
.L2842:
  mov r1, #0
.L2843:
  ands  r3, r2, #255
  orr r3, r8, r3
  add r1, r1, #1
  strne r3, [r7, #0]
  streq r0, [r7, #0]
  cmp lr, r1
  mov r2, r2, lsr #8
  add r7, r7, #4
  bhi .L2843
  b .L3345
.L3193:
  cmp r6, #0
  ldr r2, [r3, #0]
  beq .L3195
  mov r3, r1, asl #2
  mov r1, r2, lsr r3
  mov lr, #0
  mov r2, r7
.L3204:
  ands  r3, r1, #15
  orr r3, r8, r3
  orr r3, sl, r3
  add lr, lr, #1
  strne r3, [r2, #0]
  streq r0, [r2, #0]
  cmp r6, lr
  mov r1, r1, lsr #4
  add r2, r2, #4
  bne .L3204
  add r7, r7, r6, asl #2
  b .L3195
.L3077:
  ldrh  lr, [fp, #0]
  mov r2, lr, asl #22
  mov r2, r2, lsr #22
  tst lr, #2048
  mov r3, lr, lsr #12
  mov r4, r3, asl #4
  add r3, ip, r2, asl #5
  ldrne r2, [sp, #8]
  addne r3, r3, r2
  tst lr, #1024
  bne .L3394
  cmp r5, #0
  ldr r2, [r3, #0]
  beq .L3099
  mov r3, r1, asl #2
  mov r1, r2, lsr r3
  mov lr, #0
  mov r2, r7
.L3108:
  ands  r3, r1, #15
  orr r3, r8, r3
  orr r3, r4, r3
  add lr, lr, #1
  strne r3, [r2, #0]
  streq r0, [r2, #0]
  cmp r5, lr
  mov r1, r1, lsr #4
  add r2, r2, #4
  bne .L3108
.L3360:
  add r7, r7, r5, asl #2
.L3099:
  ldr r3, [sp, #12]
  add fp, fp, #2
  rsb r3, r5, r3
  str r3, [sp, #12]
  b .L3075
.L2853:
  cmp lr, #3
  bhi .L3395
  subs  ip, r6, #4
  ldr r1, [sl, #0]
  beq .L2894
  mov r3, lr, asl #3
  mov r1, r1, lsr r3
  mov lr, r7
  mov r5, #0
.L2896:
  ands  r3, r1, #255
  orr r3, r8, r3
  add r5, r5, #1
  strne r3, [lr, #0]
  streq r0, [lr, #0]
  cmp ip, r5
  mov r1, r1, lsr #8
  add lr, lr, #4
  bne .L2896
  add r3, r7, r6, asl #2
  sub r7, r3, #16
.L2894:
  ldr r1, [sl, #4]
  ands  r3, r1, #255
  orrne r3, r8, r3
  strne r3, [r7, #0]
  mov r3, r1, lsr #8
  streq r0, [r7, #0]
  ands  r3, r3, #255
  orrne r3, r8, r3
  strne r3, [r7, #4]
  mov r3, r1, lsr #16
  streq r0, [r7, #4]
  ands  r3, r3, #255
  orrne r3, r8, r3
  strne r3, [r7, #8]
  streq r0, [r7, #8]
  movs  r3, r1, lsr #24
  orrne r3, r8, r3
  strne r3, [r7, #12]
  streq r0, [r7, #12]
  b .L2913
.L2616:
  ldrh  r1, [fp, #0]
  mov r3, r1, asl #22
  mov r3, r3, lsr #22
  tst r1, #2048
  add ip, r2, r3, asl #6
  ldrne r3, [sp, #4]
  addne ip, ip, r3
  ands  r5, r1, #1024
  bne .L3396
  cmp lr, #3
  bls .L2717
  cmp r4, #0
  ldr r1, [ip, #4]
  beq .L2689
  mov r3, lr, asl #3
  sub r3, r3, #32
  mov r1, r1, lsr r3
  mov ip, r5
  mov lr, r7
.L2720:
  ands  r3, r1, #255
  orr r3, r8, r3
  add ip, ip, #1
  strne r3, [lr, #0]
  streq r0, [lr, #0]
  cmp r4, ip
  mov r1, r1, lsr #8
  add lr, lr, #4
  bne .L2720
.L3347:
  add r7, r7, r4, asl #2
.L2689:
  ldr r1, [sp, #12]
  add fp, fp, #2
  rsb r1, r4, r1
  str r1, [sp, #12]
  b .L2614
.L3392:
  ldr r1, [r2, #0]
  ands  r3, r1, #255
  orrne r3, r8, r3
  strne r3, [r7, #0]
  mov r3, r1, lsr #8
  streq r0, [r7, #0]
  ands  r3, r3, #255
  orrne r3, r8, r3
  strne r3, [r7, #4]
  mov r3, r1, lsr #16
  streq r0, [r7, #4]
  ands  r3, r3, #255
  orrne r3, r8, r3
  strne r3, [r7, #8]
  streq r0, [r7, #8]
  movs  r3, r1, lsr #24
  orrne r3, r8, r3
  strne r3, [r7, #12]
  streq r0, [r7, #12]
  subs  lr, lr, #4
  ldr r2, [r2, #4]
  addne r7, r7, #16
  bne .L3067
  b .L3345
.L3372:
  ldr r1, [r2, #4]
  ands  r3, r1, #255
  orrne r3, r8, r3
  strne r3, [r7, #12]
  mov r3, r1, lsr #8
  streq r0, [r7, #12]
  ands  r3, r3, #255
  orrne r3, r8, r3
  strne r3, [r7, #8]
  mov r3, r1, lsr #16
  streq r0, [r7, #8]
  ands  r3, r3, #255
  orrne r3, r8, r3
  strne r3, [r7, #4]
  streq r0, [r7, #4]
  movs  r3, r1, lsr #24
  orrne r3, r8, r3
  strne r3, [r7, #0]
  streq r0, [r7, #0]
  subs  lr, lr, #4
  ldr r2, [r2, #0]
  addne r7, r7, #16
  bne .L3046
  b .L3345
.L3385:
  ldr r1, [r2, #4]
  ands  r3, r1, #255
  orrne r3, r8, r3
  strne r3, [r7, #12]
  mov r3, r1, lsr #8
  streq r0, [r7, #12]
  ands  r3, r3, #255
  orrne r3, r8, r3
  strne r3, [r7, #8]
  mov r3, r1, lsr #16
  streq r0, [r7, #8]
  ands  r3, r3, #255
  orrne r3, r8, r3
  strne r3, [r7, #4]
  streq r0, [r7, #4]
  movs  r3, r1, lsr #24
  orrne r3, r8, r3
  strne r3, [r7, #0]
  streq r0, [r7, #0]
  subs  lr, lr, #4
  ldr r2, [r2, #0]
  addne r7, r7, #16
  bne .L2821
  b .L3345
.L3393:
  ldr r1, [r2, #0]
  ands  r3, r1, #255
  orrne r3, r8, r3
  strne r3, [r7, #0]
  mov r3, r1, lsr #8
  streq r0, [r7, #0]
  ands  r3, r3, #255
  orrne r3, r8, r3
  strne r3, [r7, #4]
  mov r3, r1, lsr #16
  streq r0, [r7, #4]
  ands  r3, r3, #255
  orrne r3, r8, r3
  strne r3, [r7, #8]
  streq r0, [r7, #8]
  movs  r3, r1, lsr #24
  orrne r3, r8, r3
  strne r3, [r7, #12]
  streq r0, [r7, #12]
  subs  lr, lr, #4
  ldr r2, [r2, #4]
  addne r7, r7, #16
  bne .L2842
  b .L3345
.L3389:
  cmp r6, #0
  ldr r1, [sl, #0]
  beq .L2857
  mov r3, lr, asl #3
  sub r3, r3, #32
  mov r1, r1, asl r3
  mov lr, r7
  mov r5, #0
.L2859:
  movs  r3, r1, lsr #24
  orr r3, r8, r3
  add r5, r5, #1
  strne r3, [lr, #0]
  streq r0, [lr, #0]
  cmp r6, r5
  mov r1, r1, asl #8
  add lr, lr, #4
  bne .L2859
  add r7, r7, r6, asl #2
.L3397:
  add fp, fp, #2
  b .L2850
.L3388:
  ldr r4, [sp, #12]
  ldr ip, [ip, #0]
  cmp r4, #0
  beq .L3345
  mov r3, r1, asl #2
  mov r1, ip, asl r3
  mov ip, #0
.L3084:
  movs  r3, r1, lsr #28
  orr r3, r8, r3
  orr r3, r2, r3
  strne r3, [r7, #0]
  ldr r3, [sp, #12]
  add ip, ip, #1
  streq r0, [r7, #0]
  cmp r3, ip
  mov r1, r1, asl #4
  add r7, r7, #4
  bne .L3084
  b .L3345
.L3396:
  cmp lr, #3
  bls .L2687
  cmp r4, #0
  ldr r1, [ip, #0]
  beq .L2689
  mov r3, lr, asl #3
  sub r3, r3, #32
  mov r1, r1, asl r3
  mov lr, r7
  mov r5, #0
.L2691:
  movs  r3, r1, lsr #24
  orr r3, r8, r3
  add r5, r5, #1
  strne r3, [lr, #0]
  streq r0, [lr, #0]
  cmp r4, r5
  mov r1, r1, asl #8
  add lr, lr, #4
  bne .L2691
  b .L3347
.L3394:
  cmp r5, #0
  ldr r2, [r3, #0]
  beq .L3099
  mov r3, r1, asl #2
  mov r1, r2, asl r3
  mov lr, #0
  mov r2, r7
.L3101:
  movs  r3, r1, lsr #28
  orr r3, r8, r3
  orr r3, r4, r3
  add lr, lr, #1
  strne r3, [r2, #0]
  streq r0, [r2, #0]
  cmp r5, lr
  mov r1, r1, asl #4
  add r2, r2, #4
  bne .L3101
  b .L3360
.L3390:
  cmp lr, #3
  bls .L2622
  ldr r1, [sp, #12]
  ldr r2, [ip, #0]
  cmp r1, #0
  beq .L3345
  mov r3, lr, asl #3
  sub r3, r3, #32
  mov r1, r2, asl r3
  mov r2, #0
.L2626:
  movs  r3, r1, lsr #24
  orr r3, r8, r3
  strne r3, [r7, #0]
  ldr r3, [sp, #12]
  add r2, r2, #1
  streq r0, [r7, #0]
  cmp r3, r2
  mov r1, r1, asl #8
  add r7, r7, #4
  bne .L2626
  b .L3345
.L3395:
  cmp r6, #0
  ldr r1, [sl, #4]
  beq .L2857
  mov r3, lr, asl #3
  sub r3, r3, #32
  mov r1, r1, lsr r3
  mov lr, r7
.L2888:
  ands  r3, r1, #255
  orr r3, r8, r3
  add r5, r5, #1
  strne r3, [lr, #0]
  streq r0, [lr, #0]
  cmp r6, r5
  mov r1, r1, lsr #8
  add lr, lr, #4
  bne .L2888
  add r7, r7, r6, asl #2
  b .L3397
.L2622:
  ldr r4, [sp, #12]
  mov r3, lr, asl #3
  ldr r1, [ip, #4]
  add r2, r4, lr
  sub r3, r3, #32
  cmp r2, #4
  mov r1, r1, asl r3
  bhi .L2631
  cmp r4, #0
  movne r2, #0
  beq .L3345
.L2648:
  movs  r3, r1, lsr #24
  orr r3, r8, r3
  strne r3, [r7, #0]
  ldr r3, [sp, #12]
  add r2, r2, #1
  streq r0, [r7, #0]
  cmp r3, r2
  mov r1, r1, asl #8
  add r7, r7, #4
  bne .L2648
  b .L3345
.L2687:
  subs  r6, r4, #4
  ldr r1, [ip, #4]
  beq .L2697
  mov r3, lr, asl #3
  sub r3, r3, #32
  mov r1, r1, asl r3
  mov lr, r7
  mov r5, #0
.L2699:
  movs  r3, r1, lsr #24
  orr r3, r8, r3
  add r5, r5, #1
  strne r3, [lr, #0]
  streq r0, [lr, #0]
  cmp r6, r5
  mov r1, r1, asl #8
  add lr, lr, #4
  bne .L2699
  add r3, r7, r4, asl #2
  sub r7, r3, #16
.L2697:
  ldr r1, [ip, #0]
  ands  r3, r1, #255
  orrne r3, r8, r3
  strne r3, [r7, #12]
  mov r3, r1, lsr #8
  streq r0, [r7, #12]
  ands  r3, r3, #255
  orrne r3, r8, r3
  strne r3, [r7, #8]
  mov r3, r1, lsr #16
  streq r0, [r7, #8]
  ands  r3, r3, #255
  orrne r3, r8, r3
  strne r3, [r7, #4]
  streq r0, [r7, #4]
  movs  r3, r1, lsr #24
  orrne r3, r8, r3
  strne r3, [r7, #0]
  streq r0, [r7, #0]
.L2745:
  add r7, r7, #16
  b .L2689
.L2653:
  ldr r4, [sp, #12]
  ldr r3, [ip, #0]
  add r2, r4, lr
  cmp r2, #4
  mov r1, lr, asl #3
  mov r2, r3, lsr r1
  bhi .L2661
  cmp r4, #0
  movne r1, #0
  beq .L3345
.L2678:
  ands  r3, r2, #255
  orr r3, r8, r3
  strne r3, [r7, #0]
  ldr r3, [sp, #12]
  add r1, r1, #1
  streq r0, [r7, #0]
  cmp r3, r1
  mov r2, r2, lsr #8
  add r7, r7, #4
  bne .L2678
  b .L3345
.L2717:
  subs  r6, r4, #4
  ldr r1, [ip, #0]
  beq .L2726
  mov r3, lr, asl #3
  mov r1, r1, lsr r3
  mov lr, r7
  mov r5, #0
.L2728:
  ands  r3, r1, #255
  orr r3, r8, r3
  add r5, r5, #1
  strne r3, [lr, #0]
  streq r0, [lr, #0]
  cmp r6, r5
  mov r1, r1, lsr #8
  add lr, lr, #4
  bne .L2728
  add r3, r7, r4, asl #2
  sub r7, r3, #16
.L2726:
  ldr r1, [ip, #4]
  ands  r3, r1, #255
  orrne r3, r8, r3
  strne r3, [r7, #0]
  mov r3, r1, lsr #8
  streq r0, [r7, #0]
  ands  r3, r3, #255
  orrne r3, r8, r3
  strne r3, [r7, #4]
  mov r3, r1, lsr #16
  streq r0, [r7, #4]
  ands  r3, r3, #255
  orrne r3, r8, r3
  strne r3, [r7, #8]
  streq r0, [r7, #8]
  movs  r3, r1, lsr #24
  orrne r3, r8, r3
  strne r3, [r7, #12]
  bne .L2745
  str r0, [r7, #12]
  add r7, r7, #16
  b .L2689
.L2631:
  rsbs  r4, lr, #4
  beq .L2634
  mov r2, r7
  mov lr, #0
.L2636:
  movs  r3, r1, lsr #24
  orr r3, r8, r3
  add lr, lr, #1
  strne r3, [r2, #0]
  streq r0, [r2, #0]
  cmp r4, lr
  mov r1, r1, asl #8
  add r2, r2, #4
  bne .L2636
  add r7, r7, r4, asl #2
.L2634:
  ldr r1, [sp, #12]
  ldr r2, [ip, #0]
  subs  lr, r1, r4
  beq .L3345
  mov r1, #0
.L2643:
  movs  r3, r2, lsr #24
  orr r3, r8, r3
  add r1, r1, #1
  strne r3, [r7, #0]
  streq r0, [r7, #0]
  cmp lr, r1
  mov r2, r2, asl #8
  add r7, r7, #4
  bne .L2643
  b .L3345
.L2661:
  rsbs  r4, lr, #4
  beq .L2664
  mov r1, r7
  mov lr, #0
.L2666:
  ands  r3, r2, #255
  orr r3, r8, r3
  add lr, lr, #1
  strne r3, [r1, #0]
  streq r0, [r1, #0]
  cmp r4, lr
  mov r2, r2, lsr #8
  add r1, r1, #4
  bne .L2666
  add r7, r7, r4, asl #2
.L2664:
  ldr r1, [sp, #12]
  ldr r2, [ip, #4]
  subs  lr, r1, r4
  beq .L3345
  mov r1, #0
.L2673:
  ands  r3, r2, #255
  orr r3, r8, r3
  add r1, r1, #1
  strne r3, [r7, #0]
  streq r0, [r7, #0]
  cmp lr, r1
  mov r2, r2, lsr #8
  add r7, r7, #4
  bne .L2673
  b .L3345
  .size render_scanline_text_base_color32, .-render_scanline_text_base_color32
  .align  2
  .global render_scanline_text_transparent_color32
  .type render_scanline_text_transparent_color32, %function
render_scanline_text_transparent_color32:
  @ args = 0, pretend = 0, frame = 4
  @ frame_needed = 0, uses_anonymous_args = 0
  ldr ip, .L4043
  stmfd sp!, {r4, r5, r6, r7, r8, r9, sl, fp, lr}
  ldrh  lr, [ip, #80]
  add r6, r0, #7
  mov r6, lr, asr r6
  mov lr, lr, asr r0
  add r7, ip, r0, asl #2
  ldrh  r5, [ip, #6]
  ldrh  r4, [r7, #18]
  add ip, ip, r0, asl #1
  add sl, r5, r4
  ldrh  r8, [ip, #8]
  mov r5, sl, asl #23
  mov r5, r5, lsr #23
  ldrh  r4, [r7, #16]
  cmp r5, #255
  movls ip, #0
  movhi ip, #1
  mov r7, r8, lsr #14
  rsb fp, r1, r2
  ldr r2, .L4043+4
  ands  ip, ip, r7, lsr #1
  ldr r2, [r2, r7, asl #2]
  add ip, r3, r1, asl #2
  mov r0, r8, asl #3
  subne r3, r5, #256
  ldr r9, .L4043+8
  movne r3, r3, lsr #3
  moveq r3, sl, asl #3
  add r4, r4, r1
  and r0, r0, #63488
  add r0, r0, r9
  addne r3, r3, r2, lsr #3
  andeq r3, r3, #1984
  mov r4, r4, asl #23
  addne r0, r0, r3, asl #6
  addeq r0, r0, r3
  mov r4, r4, lsr #23
  tst r7, #1
  and lr, lr, #1
  and r6, r6, #2
  andeq r4, r4, #255
  sub sp, sp, #4
  orr lr, lr, r6
  moveq r3, r4, lsr #3
  mov lr, lr, asl #9
  addeq r7, r0, r3, asl #1
  streq r0, [sp, #0]
  beq .L3408
  cmp r4, #255
  subhi r4, r4, #256
  movhi r3, r4, lsr #3
  movls r3, r4, lsr #3
  addhi r3, r0, r3, asl #1
  addls r7, r0, r3, asl #1
  addls r0, r0, #2048
  addhi r7, r3, #2048
  strhi r0, [sp, #0]
  strls r0, [sp, #0]
.L3408:
  tst r8, #128
  beq .L3409
  and r1, r4, #255
  and r3, r5, #7
  mov r2, r8, asl #12
  mov r3, r3, asl #3
  and r2, r2, #49152
  rsb r0, r1, #256
  add r2, r2, r3
  cmp fp, r0
  mov r3, r3, asl #1
  add r2, r2, r9
  and r4, r4, #7
  rsb r9, r3, #56
  bls .L4018
  cmp r4, #0
  moveq r6, r4
  bne .L4019
.L3611:
  rsb r3, r6, r0
  movs  sl, r3, lsr #3
  beq .L3665
  mov r6, ip
  mov r8, #0
  b .L3667
.L4020:
  ldr r1, [r4, #4]
  cmp r1, #0
  beq .L3672
  ands  r3, r1, #255
  orrne r3, lr, r3
  strne r3, [r6, #12]
  mov r3, r1, lsr #8
  ands  r3, r3, #255
  orrne r3, lr, r3
  strne r3, [r6, #8]
  mov r3, r1, lsr #16
  ands  r3, r3, #255
  orrne r3, lr, r3
  strne r3, [r6, #4]
  movs  r3, r1, lsr #24
  orrne r3, lr, r3
  strne r3, [r6, #0]
.L3672:
  ldr r1, [r4, #0]
  cmp r1, #0
  beq .L3681
  ands  r3, r1, #255
  orrne r3, lr, r3
  strne r3, [r6, #28]
  mov r3, r1, lsr #8
  ands  r3, r3, #255
  orrne r3, lr, r3
  strne r3, [r6, #24]
  mov r3, r1, lsr #16
  ands  r3, r3, #255
  orrne r3, lr, r3
  strne r3, [r6, #20]
  movs  r3, r1, lsr #24
  orrne r3, lr, r3
  strne r3, [r6, #16]
.L3681:
  add r8, r8, #1
  cmp sl, r8
  add r6, r6, #32
  beq .L3707
.L4021:
  add r7, r7, #2
.L3667:
  ldrh  r1, [r7, #0]
  mov r3, r1, asl #22
  mov r3, r3, lsr #22
  tst r1, #2048
  add r4, r2, r3, asl #6
  addne r4, r4, r9
  tst r1, #1024
  bne .L4020
  ldr r1, [r4, #0]
  cmp r1, #0
  beq .L3690
  ands  r3, r1, #255
  orrne r3, lr, r3
  strne r3, [r6, #0]
  mov r3, r1, lsr #8
  ands  r3, r3, #255
  orrne r3, lr, r3
  strne r3, [r6, #4]
  mov r3, r1, lsr #16
  ands  r3, r3, #255
  orrne r3, lr, r3
  strne r3, [r6, #8]
  movs  r3, r1, lsr #24
  orrne r3, lr, r3
  strne r3, [r6, #12]
.L3690:
  ldr r1, [r4, #4]
  cmp r1, #0
  beq .L3681
  ands  r3, r1, #255
  orrne r3, lr, r3
  strne r3, [r6, #16]
  mov r3, r1, lsr #8
  ands  r3, r3, #255
  orrne r3, lr, r3
  strne r3, [r6, #20]
  mov r3, r1, lsr #16
  ands  r3, r3, #255
  orrne r3, lr, r3
  strne r3, [r6, #24]
  movs  r3, r1, lsr #24
  orrne r3, lr, r3
  add r8, r8, #1
  strne r3, [r6, #28]
  cmp sl, r8
  add r6, r6, #32
  bne .L4021
.L3707:
  add ip, ip, sl, asl #5
.L3665:
  rsb sl, r0, fp
  movs  r0, sl, lsr #3
  ldreq r0, [sp, #0]
  beq .L3711
  ldr r7, [sp, #0]
  mov r6, ip
  mov r8, #0
  b .L3712
.L4023:
  ldr r1, [r4, #4]
  cmp r1, #0
  beq .L3717
  ands  r3, r1, #255
  orrne r3, lr, r3
  strne r3, [r6, #12]
  mov r3, r1, lsr #8
  ands  r3, r3, #255
  orrne r3, lr, r3
  strne r3, [r6, #8]
  mov r3, r1, lsr #16
  ands  r3, r3, #255
  orrne r3, lr, r3
  strne r3, [r6, #4]
  movs  r3, r1, lsr #24
  orrne r3, lr, r3
  strne r3, [r6, #0]
.L3717:
  ldr r1, [r4, #0]
  cmp r1, #0
  beq .L3726
  ands  r3, r1, #255
  orrne r3, lr, r3
  strne r3, [r6, #28]
  mov r3, r1, lsr #8
  ands  r3, r3, #255
  orrne r3, lr, r3
  strne r3, [r6, #24]
  mov r3, r1, lsr #16
  ands  r3, r3, #255
  orrne r3, lr, r3
  strne r3, [r6, #20]
  movs  r3, r1, lsr #24
  orrne r3, lr, r3
  strne r3, [r6, #16]
.L3726:
  add r8, r8, #1
  cmp r0, r8
  add r6, r6, #32
  add r7, r7, #2
  beq .L4022
.L3712:
  ldrh  r1, [r7, #0]
  mov r3, r1, asl #22
  mov r3, r3, lsr #22
  tst r1, #2048
  add r4, r2, r3, asl #6
  addne r4, r4, r9
  tst r1, #1024
  bne .L4023
  ldr r1, [r4, #0]
  cmp r1, #0
  beq .L3735
  ands  r3, r1, #255
  orrne r3, lr, r3
  strne r3, [r6, #0]
  mov r3, r1, lsr #8
  ands  r3, r3, #255
  orrne r3, lr, r3
  strne r3, [r6, #4]
  mov r3, r1, lsr #16
  ands  r3, r3, #255
  orrne r3, lr, r3
  strne r3, [r6, #8]
  movs  r3, r1, lsr #24
  orrne r3, lr, r3
  strne r3, [r6, #12]
.L3735:
  ldr r1, [r4, #4]
  cmp r1, #0
  beq .L3726
  ands  r3, r1, #255
  orrne r3, lr, r3
  strne r3, [r6, #16]
  mov r3, r1, lsr #8
  ands  r3, r3, #255
  orrne r3, lr, r3
  strne r3, [r6, #20]
  mov r3, r1, lsr #16
  ands  r3, r3, #255
  orrne r3, lr, r3
  strne r3, [r6, #24]
  movs  r3, r1, lsr #24
  orrne r3, lr, r3
  add r8, r8, #1
  strne r3, [r6, #28]
  cmp r0, r8
  add r6, r6, #32
  add r7, r7, #2
  bne .L3712
.L4022:
  ldr r3, [sp, #0]
  add ip, ip, r0, asl #5
  add r0, r3, r0, asl #1
.L3711:
  ands  r4, sl, #7
  beq .L4000
  ldrh  r0, [r0, #0]
  mov r3, r0, asl #22
  mov r3, r3, lsr #22
  tst r0, #2048
  add r2, r2, r3, asl #6
  addne r2, r2, r9
  tst r0, #1024
  beq .L3756
  cmp r4, #3
  ldrls r0, [r2, #4]
  bls .L3770
  ldr r1, [r2, #4]
  cmp r1, #0
  beq .L3760
  ands  r3, r1, #255
  orrne r3, lr, r3
  strne r3, [ip, #12]
  mov r3, r1, lsr #8
  ands  r3, r3, #255
  orrne r3, lr, r3
  strne r3, [ip, #8]
  mov r3, r1, lsr #16
  ands  r3, r3, #255
  orrne r3, lr, r3
  strne r3, [ip, #4]
  movs  r3, r1, lsr #24
  orrne r3, lr, r3
  strne r3, [ip, #0]
.L3760:
  subs  r4, r4, #4
  ldr r0, [r2, #0]
  addne ip, ip, #16
  beq .L4000
.L3770:
  mov r1, #0
.L3771:
  movs  r3, r0, lsr #24
  orr r3, lr, r3
  strne r3, [ip, r1, asl #2]
  add r1, r1, #1
  cmp r1, r4
  mov r0, r0, asl #8
  bcc .L3771
.L4000:
  add sp, sp, #4
  ldmfd sp!, {r4, r5, r6, r7, r8, r9, sl, fp, pc}
.L3409:
  and r3, r5, #7
  and r1, r4, #255
  mov r2, r8, asl #12
  mov r3, r3, asl #2
  rsb r5, r1, #256
  and r2, r2, #49152
  add r2, r2, r3
  cmp fp, r5
  mov r3, r3, asl #1
  add sl, r2, r9
  and r1, r4, #7
  rsb r9, r3, #28
  bls .L4024
  cmp r1, #0
  moveq r4, r1
  bne .L4025
.L3885:
  rsb r3, r4, r5
  movs  r0, r3, lsr #3
  beq .L3903
  mov r4, ip
  mov r8, #0
  b .L3905
.L4026:
  ldr r2, [r3, #0]
  cmp r2, #0
  beq .L3910
  ands  r3, r2, #15
  orrne r3, lr, r3
  orrne r3, r6, r3
  strne r3, [r4, #28]
  mov r3, r2, lsr #4
  ands  r3, r3, #15
  orrne r3, lr, r3
  orrne r3, r6, r3
  strne r3, [r4, #24]
  mov r3, r2, lsr #8
  ands  r3, r3, #15
  orrne r3, lr, r3
  orrne r3, r6, r3
  strne r3, [r4, #20]
  mov r3, r2, lsr #12
  ands  r3, r3, #15
  orrne r3, lr, r3
  orrne r3, r6, r3
  strne r3, [r4, #16]
  mov r3, r2, lsr #16
  ands  r3, r3, #15
  orrne r3, lr, r3
  orrne r3, r6, r3
  strne r3, [r4, #12]
  mov r3, r2, lsr #20
  ands  r3, r3, #15
  orrne r3, lr, r3
  orrne r3, r6, r3
  strne r3, [r4, #8]
  mov r3, r2, lsr #24
  ands  r3, r3, #15
  orrne r3, lr, r3
  orrne r3, r6, r3
  strne r3, [r4, #4]
  movs  r3, r2, lsr #28
  orrne r3, lr, r3
  orrne r3, r6, r3
  strne r3, [r4, #0]
.L3910:
  add r8, r8, #1
  cmp r0, r8
  add r4, r4, #32
  beq .L3943
.L4027:
  add r7, r7, #2
.L3905:
  ldrh  r1, [r7, #0]
  mov r2, r1, asl #22
  mov r3, r1, lsr #12
  mov r2, r2, lsr #22
  tst r1, #2048
  mov r6, r3, asl #4
  add r3, sl, r2, asl #5
  addne r3, r3, r9
  tst r1, #1024
  bne .L4026
  ldr r2, [r3, #0]
  cmp r2, #0
  beq .L3910
  ands  r3, r2, #15
  orrne r3, lr, r3
  orrne r3, r6, r3
  strne r3, [r4, #0]
  mov r3, r2, lsr #4
  ands  r3, r3, #15
  orrne r3, lr, r3
  orrne r3, r6, r3
  strne r3, [r4, #4]
  mov r3, r2, lsr #8
  ands  r3, r3, #15
  orrne r3, lr, r3
  orrne r3, r6, r3
  strne r3, [r4, #8]
  mov r3, r2, lsr #12
  ands  r3, r3, #15
  orrne r3, lr, r3
  orrne r3, r6, r3
  strne r3, [r4, #12]
  mov r3, r2, lsr #16
  ands  r3, r3, #15
  orrne r3, lr, r3
  orrne r3, r6, r3
  strne r3, [r4, #16]
  mov r3, r2, lsr #20
  ands  r3, r3, #15
  orrne r3, lr, r3
  orrne r3, r6, r3
  strne r3, [r4, #20]
  mov r3, r2, lsr #24
  ands  r3, r3, #15
  orrne r3, lr, r3
  orrne r3, r6, r3
  strne r3, [r4, #24]
  movs  r3, r2, lsr #28
  orrne r3, lr, r3
  orrne r3, r6, r3
  add r8, r8, #1
  strne r3, [r4, #28]
  cmp r0, r8
  add r4, r4, #32
  bne .L4027
.L3943:
  add ip, ip, r0, asl #5
.L3903:
  rsb fp, r5, fp
  movs  r0, fp, lsr #3
  ldreq r0, [sp, #0]
  beq .L3947
  ldr r7, [sp, #0]
  mov r4, ip
  mov r8, #0
  b .L3948
.L4029:
  ldr r2, [r3, #0]
  cmp r2, #0
  beq .L3953
  ands  r3, r2, #15
  orrne r3, lr, r3
  orrne r3, r6, r3
  strne r3, [r4, #28]
  mov r3, r2, lsr #4
  ands  r3, r3, #15
  orrne r3, lr, r3
  orrne r3, r6, r3
  strne r3, [r4, #24]
  mov r3, r2, lsr #8
  ands  r3, r3, #15
  orrne r3, lr, r3
  orrne r3, r6, r3
  strne r3, [r4, #20]
  mov r3, r2, lsr #12
  ands  r3, r3, #15
  orrne r3, lr, r3
  orrne r3, r6, r3
  strne r3, [r4, #16]
  mov r3, r2, lsr #16
  ands  r3, r3, #15
  orrne r3, lr, r3
  orrne r3, r6, r3
  strne r3, [r4, #12]
  mov r3, r2, lsr #20
  ands  r3, r3, #15
  orrne r3, lr, r3
  orrne r3, r6, r3
  strne r3, [r4, #8]
  mov r3, r2, lsr #24
  ands  r3, r3, #15
  orrne r3, lr, r3
  orrne r3, r6, r3
  strne r3, [r4, #4]
  movs  r3, r2, lsr #28
  orrne r3, lr, r3
  orrne r3, r6, r3
  strne r3, [r4, #0]
.L3953:
  add r8, r8, #1
  cmp r0, r8
  add r4, r4, #32
  add r7, r7, #2
  beq .L4028
.L3948:
  ldrh  r1, [r7, #0]
  mov r2, r1, asl #22
  mov r3, r1, lsr #12
  mov r2, r2, lsr #22
  tst r1, #2048
  mov r6, r3, asl #4
  add r3, sl, r2, asl #5
  addne r3, r3, r9
  tst r1, #1024
  bne .L4029
  ldr r2, [r3, #0]
  cmp r2, #0
  beq .L3953
  ands  r3, r2, #15
  orrne r3, lr, r3
  orrne r3, r6, r3
  strne r3, [r4, #0]
  mov r3, r2, lsr #4
  ands  r3, r3, #15
  orrne r3, lr, r3
  orrne r3, r6, r3
  strne r3, [r4, #4]
  mov r3, r2, lsr #8
  ands  r3, r3, #15
  orrne r3, lr, r3
  orrne r3, r6, r3
  strne r3, [r4, #8]
  mov r3, r2, lsr #12
  ands  r3, r3, #15
  orrne r3, lr, r3
  orrne r3, r6, r3
  strne r3, [r4, #12]
  mov r3, r2, lsr #16
  ands  r3, r3, #15
  orrne r3, lr, r3
  orrne r3, r6, r3
  strne r3, [r4, #16]
  mov r3, r2, lsr #20
  ands  r3, r3, #15
  orrne r3, lr, r3
  orrne r3, r6, r3
  strne r3, [r4, #20]
  mov r3, r2, lsr #24
  ands  r3, r3, #15
  orrne r3, lr, r3
  orrne r3, r6, r3
  strne r3, [r4, #24]
  movs  r3, r2, lsr #28
  orrne r3, lr, r3
  orrne r3, r6, r3
  add r8, r8, #1
  strne r3, [r4, #28]
  cmp r0, r8
  add r4, r4, #32
  add r7, r7, #2
  bne .L3948
.L4028:
  ldr r3, [sp, #0]
  add ip, ip, r0, asl #5
  add r0, r3, r0, asl #1
.L3947:
  ands  r4, fp, #7
  beq .L4000
  ldrh  r0, [r0, #0]
  mov r3, r0, asl #22
  mov r3, r3, lsr #22
  tst r0, #2048
  add r3, sl, r3, asl #5
  mov r2, r0, lsr #12
  addne r3, r3, r9
  tst r0, #1024
  mov r2, r2, asl #4
  ldreq r0, [r3, #0]
  moveq r1, #0
  beq .L3996
  ldr r0, [r3, #0]
  mov r1, #0
.L3992:
  movs  r3, r0, lsr #28
  orr r3, lr, r3
  orr r3, r2, r3
  strne r3, [ip, r1, asl #2]
  add r1, r1, #1
  cmp r4, r1
  mov r0, r0, asl #4
  bne .L3992
  b .L4000
.L4024:
  cmp r1, #0
  bne .L4030
.L3794:
  movs  r0, fp, lsr #3
  beq .L3829
  mov r4, ip
  mov r6, r7
  mov r8, #0
  b .L3831
.L4032:
  ldr r2, [r3, #0]
  cmp r2, #0
  beq .L3836
  ands  r3, r2, #15
  orrne r3, lr, r3
  orrne r3, r5, r3
  strne r3, [r4, #28]
  mov r3, r2, lsr #4
  ands  r3, r3, #15
  orrne r3, lr, r3
  orrne r3, r5, r3
  strne r3, [r4, #24]
  mov r3, r2, lsr #8
  ands  r3, r3, #15
  orrne r3, lr, r3
  orrne r3, r5, r3
  strne r3, [r4, #20]
  mov r3, r2, lsr #12
  ands  r3, r3, #15
  orrne r3, lr, r3
  orrne r3, r5, r3
  strne r3, [r4, #16]
  mov r3, r2, lsr #16
  ands  r3, r3, #15
  orrne r3, lr, r3
  orrne r3, r5, r3
  strne r3, [r4, #12]
  mov r3, r2, lsr #20
  ands  r3, r3, #15
  orrne r3, lr, r3
  orrne r3, r5, r3
  strne r3, [r4, #8]
  mov r3, r2, lsr #24
  ands  r3, r3, #15
  orrne r3, lr, r3
  orrne r3, r5, r3
  strne r3, [r4, #4]
  movs  r3, r2, lsr #28
  orrne r3, lr, r3
  orrne r3, r5, r3
  strne r3, [r4, #0]
.L3836:
  add r8, r8, #1
  cmp r0, r8
  add r4, r4, #32
  add r6, r6, #2
  beq .L4031
.L3831:
  ldrh  r1, [r6, #0]
  mov r2, r1, asl #22
  mov r3, r1, lsr #12
  mov r2, r2, lsr #22
  tst r1, #2048
  mov r5, r3, asl #4
  add r3, sl, r2, asl #5
  addne r3, r3, r9
  tst r1, #1024
  bne .L4032
  ldr r2, [r3, #0]
  cmp r2, #0
  beq .L3836
  ands  r3, r2, #15
  orrne r3, lr, r3
  orrne r3, r5, r3
  strne r3, [r4, #0]
  mov r3, r2, lsr #4
  ands  r3, r3, #15
  orrne r3, lr, r3
  orrne r3, r5, r3
  strne r3, [r4, #4]
  mov r3, r2, lsr #8
  ands  r3, r3, #15
  orrne r3, lr, r3
  orrne r3, r5, r3
  strne r3, [r4, #8]
  mov r3, r2, lsr #12
  ands  r3, r3, #15
  orrne r3, lr, r3
  orrne r3, r5, r3
  strne r3, [r4, #12]
  mov r3, r2, lsr #16
  ands  r3, r3, #15
  orrne r3, lr, r3
  orrne r3, r5, r3
  strne r3, [r4, #16]
  mov r3, r2, lsr #20
  ands  r3, r3, #15
  orrne r3, lr, r3
  orrne r3, r5, r3
  strne r3, [r4, #20]
  mov r3, r2, lsr #24
  ands  r3, r3, #15
  orrne r3, lr, r3
  orrne r3, r5, r3
  strne r3, [r4, #24]
  movs  r3, r2, lsr #28
  orrne r3, lr, r3
  orrne r3, r5, r3
  add r8, r8, #1
  strne r3, [r4, #28]
  cmp r0, r8
  add r4, r4, #32
  add r6, r6, #2
  bne .L3831
.L4031:
  add ip, ip, r0, asl #5
  add r7, r7, r0, asl #1
.L3829:
  ands  r4, fp, #7
  beq .L4000
  ldrh  r1, [r7, #0]
  mov r3, r1, asl #22
  mov r3, r3, lsr #22
  tst r1, #2048
  add r0, sl, r3, asl #5
  mov r2, r1, lsr #12
  addne r0, r0, r9
  tst r1, #1024
  mov r2, r2, asl #4
  ldreq r0, [r0, #0]
  moveq r1, #0
  beq .L3879
  ldr r0, [r0, #0]
  mov r1, #0
.L3875:
  movs  r3, r0, lsr #28
  orr r3, lr, r3
  orr r3, r2, r3
  strne r3, [ip, r1, asl #2]
  add r1, r1, #1
  cmp r4, r1
  mov r0, r0, asl #4
  bne .L3875
  b .L4000
.L4018:
  cmp r4, #0
  bne .L4033
.L3413:
  movs  sl, fp, lsr #3
  beq .L3527
  mov r5, ip
  mov r6, r7
  mov r8, #0
  b .L3529
.L4035:
  ldr r1, [r4, #4]
  cmp r1, #0
  beq .L3534
  ands  r3, r1, #255
  orrne r3, lr, r3
  strne r3, [r5, #12]
  mov r3, r1, lsr #8
  ands  r3, r3, #255
  orrne r3, lr, r3
  strne r3, [r5, #8]
  mov r3, r1, lsr #16
  ands  r3, r3, #255
  orrne r3, lr, r3
  strne r3, [r5, #4]
  movs  r3, r1, lsr #24
  orrne r3, lr, r3
  strne r3, [r5, #0]
.L3534:
  ldr r1, [r4, #0]
  cmp r1, #0
  beq .L3543
  ands  r3, r1, #255
  orrne r3, lr, r3
  strne r3, [r5, #28]
  mov r3, r1, lsr #8
  ands  r3, r3, #255
  orrne r3, lr, r3
  strne r3, [r5, #24]
  mov r3, r1, lsr #16
  ands  r3, r3, #255
  orrne r3, lr, r3
  strne r3, [r5, #20]
  movs  r3, r1, lsr #24
  orrne r3, lr, r3
  strne r3, [r5, #16]
.L3543:
  add r8, r8, #1
  cmp sl, r8
  add r5, r5, #32
  add r6, r6, #2
  beq .L4034
.L3529:
  ldrh  r1, [r6, #0]
  mov r3, r1, asl #22
  mov r3, r3, lsr #22
  tst r1, #2048
  add r4, r2, r3, asl #6
  addne r4, r4, r9
  tst r1, #1024
  bne .L4035
  ldr r1, [r4, #0]
  cmp r1, #0
  beq .L3552
  ands  r3, r1, #255
  orrne r3, lr, r3
  strne r3, [r5, #0]
  mov r3, r1, lsr #8
  ands  r3, r3, #255
  orrne r3, lr, r3
  strne r3, [r5, #4]
  mov r3, r1, lsr #16
  ands  r3, r3, #255
  orrne r3, lr, r3
  strne r3, [r5, #8]
  movs  r3, r1, lsr #24
  orrne r3, lr, r3
  strne r3, [r5, #12]
.L3552:
  ldr r1, [r4, #4]
  cmp r1, #0
  beq .L3543
  ands  r3, r1, #255
  orrne r3, lr, r3
  strne r3, [r5, #16]
  mov r3, r1, lsr #8
  ands  r3, r3, #255
  orrne r3, lr, r3
  strne r3, [r5, #20]
  mov r3, r1, lsr #16
  ands  r3, r3, #255
  orrne r3, lr, r3
  strne r3, [r5, #24]
  movs  r3, r1, lsr #24
  orrne r3, lr, r3
  add r8, r8, #1
  strne r3, [r5, #28]
  cmp sl, r8
  add r5, r5, #32
  add r6, r6, #2
  bne .L3529
.L4034:
  add ip, ip, sl, asl #5
  add r7, r7, sl, asl #1
.L3527:
  ands  r4, fp, #7
  beq .L4000
  ldrh  r1, [r7, #0]
  mov r3, r1, asl #22
  mov r3, r3, lsr #22
  tst r1, #2048
  add r0, r2, r3, asl #6
  addne r0, r0, r9
  tst r1, #1024
  beq .L3573
  cmp r4, #3
  ldrls r0, [r0, #4]
  bls .L3587
  ldr r1, [r0, #4]
  cmp r1, #0
  beq .L3577
  ands  r3, r1, #255
  orrne r3, lr, r3
  strne r3, [ip, #12]
  mov r3, r1, lsr #8
  ands  r3, r3, #255
  orrne r3, lr, r3
  strne r3, [ip, #8]
  mov r3, r1, lsr #16
  ands  r3, r3, #255
  orrne r3, lr, r3
  strne r3, [ip, #4]
  movs  r3, r1, lsr #24
  orrne r3, lr, r3
  strne r3, [ip, #0]
.L3577:
  subs  r4, r4, #4
  ldr r0, [r0, #0]
  addne ip, ip, #16
  beq .L4000
.L3587:
  mov r1, #0
.L3588:
  movs  r3, r0, lsr #24
  orr r3, lr, r3
  strne r3, [ip, r1, asl #2]
  add r1, r1, #1
  cmp r4, r1
  mov r0, r0, asl #8
  bhi .L3588
  b .L4000
.L3996:
  ands  r3, r0, #15
  orr r3, lr, r3
  orr r3, r2, r3
  strne r3, [ip, r1, asl #2]
  add r1, r1, #1
  cmp r4, r1
  mov r0, r0, lsr #4
  beq .L4000
  ands  r3, r0, #15
  orr r3, lr, r3
  orr r3, r2, r3
  strne r3, [ip, r1, asl #2]
  add r1, r1, #1
  cmp r4, r1
  mov r0, r0, lsr #4
  bne .L3996
  b .L4000
.L4030:
  rsb r5, r1, #8
  cmp fp, r5
  bcs .L3796
  ldrh  r4, [r7, #0]
  mov r3, r4, asl #22
  mov r3, r3, lsr #22
  tst r4, #2048
  add r0, sl, r3, asl #5
  mov r2, r4, lsr #12
  addne r0, r0, r9
  tst r4, #1024
  mov r2, r2, asl #4
  bne .L4036
  cmp fp, #0
  ldr r0, [r0, #0]
  beq .L4000
  mov r3, r1, asl #2
  mov r0, r0, lsr r3
  mov r1, #0
.L3808:
  ands  r3, r0, #15
  orr r3, lr, r3
  orr r3, r2, r3
  strne r3, [ip, r1, asl #2]
  add r1, r1, #1
  cmp fp, r1
  mov r0, r0, lsr #4
  bne .L3808
  b .L4000
.L4025:
  ldrh  r6, [r7, #0]
  rsb r4, r1, #8
  mov r2, r6, asl #22
  mov r3, r6, lsr #12
  mov r2, r2, lsr #22
  tst r6, #2048
  mov r8, r3, asl #4
  add r3, sl, r2, asl #5
  addne r3, r3, r9
  tst r6, #1024
  beq .L3888
  cmp r4, #0
  ldr r2, [r3, #0]
  beq .L3890
  mov r3, r1, asl #2
  mov r1, r2, asl r3
  mov r2, #0
.L3892:
  movs  r3, r1, lsr #28
  orr r3, lr, r3
  orr r3, r8, r3
  strne r3, [ip, r2, asl #2]
  add r2, r2, #1
  cmp r4, r2
  mov r1, r1, asl #4
  bne .L3892
  add ip, ip, r4, asl #2
.L3890:
  add r7, r7, #2
  b .L3885
.L4019:
  ldrh  r1, [r7, #0]
  rsb r6, r4, #8
  mov r3, r1, asl #22
  mov r3, r3, lsr #22
  tst r1, #2048
  add r8, r2, r3, asl #6
  addne r8, r8, r9
  ands  sl, r1, #1024
  beq .L3614
  cmp r4, #3
  bhi .L4037
  subs  r5, r6, #4
  ldr r1, [r8, #4]
  beq .L3625
  mov r3, r4, asl #3
  sub r3, r3, #32
  mov r1, r1, asl r3
  mov r4, #0
.L3627:
  movs  r3, r1, lsr #24
  orr r3, lr, r3
  strne r3, [ip, r4, asl #2]
  add r4, r4, #1
  cmp r5, r4
  mov r1, r1, asl #8
  bne .L3627
  add r3, ip, r6, asl #2
  sub ip, r3, #16
.L3625:
  ldr r1, [r8, #0]
  cmp r1, #0
  beq .L3656
  ands  r3, r1, #255
  orrne r3, lr, r3
  strne r3, [ip, #12]
  mov r3, r1, lsr #8
  ands  r3, r3, #255
  orrne r3, lr, r3
  strne r3, [ip, #8]
  mov r3, r1, lsr #16
  ands  r3, r3, #255
  orrne r3, lr, r3
  strne r3, [ip, #4]
  movs  r3, r1, lsr #24
  orrne r3, lr, r3
  strne r3, [ip, #0]
.L3656:
  add ip, ip, #16
  mov r6, r5
.L3618:
  add r7, r7, #2
  b .L3611
.L4033:
  rsb r0, r4, #8
  cmp fp, r0
  bcs .L3415
  ldrh  r1, [r7, #0]
  mov r3, r1, asl #22
  mov r3, r3, lsr #22
  tst r1, #2048
  add r0, r2, r3, asl #6
  addne r0, r0, r9
  tst r1, #1024
  bne .L4038
  cmp r4, #3
  bls .L3448
  cmp fp, #0
  ldr r0, [r0, #4]
  beq .L4000
  mov r3, r4, asl #3
  sub r3, r3, #32
  mov r0, r0, lsr r3
  mov r2, #0
.L3451:
  ands  r3, r0, #255
  orr r3, lr, r3
  strne r3, [ip, r2, asl #2]
  add r2, r2, #1
  cmp fp, r2
  mov r0, r0, lsr #8
  bne .L3451
  b .L4000
.L3879:
  ands  r3, r0, #15
  orr r3, lr, r3
  orr r3, r2, r3
  strne r3, [ip, r1, asl #2]
  add r1, r1, #1
  cmp r4, r1
  mov r0, r0, lsr #4
  beq .L4000
  ands  r3, r0, #15
  orr r3, lr, r3
  orr r3, r2, r3
  strne r3, [ip, r1, asl #2]
  add r1, r1, #1
  cmp r4, r1
  mov r0, r0, lsr #4
  bne .L3879
  b .L4000
.L4044:
  .align  2
.L4043:
  .word io_registers
  .word map_widths
  .word vram
.L3756:
  cmp r4, #3
  ldrls r0, [r2, #0]
  bls .L3787
  ldr r1, [r2, #0]
  cmp r1, #0
  beq .L3777
  ands  r3, r1, #255
  orrne r3, lr, r3
  strne r3, [ip, #0]
  mov r3, r1, lsr #8
  ands  r3, r3, #255
  orrne r3, lr, r3
  strne r3, [ip, #4]
  mov r3, r1, lsr #16
  ands  r3, r3, #255
  orrne r3, lr, r3
  strne r3, [ip, #8]
  movs  r3, r1, lsr #24
  orrne r3, lr, r3
  strne r3, [ip, #12]
.L3777:
  subs  r4, r4, #4
  ldr r0, [r2, #4]
  addne ip, ip, #16
  beq .L4000
.L3787:
  mov r1, #0
.L3788:
  ands  r3, r0, #255
  orr r3, lr, r3
  strne r3, [ip, r1, asl #2]
  add r1, r1, #1
  cmp r1, r4
  mov r0, r0, lsr #8
  bcc .L3788
  b .L4000
.L3573:
  cmp r4, #3
  ldrls r0, [r0, #0]
  bls .L3604
  ldr r1, [r0, #0]
  cmp r1, #0
  beq .L3594
  ands  r3, r1, #255
  orrne r3, lr, r3
  strne r3, [ip, #0]
  mov r3, r1, lsr #8
  ands  r3, r3, #255
  orrne r3, lr, r3
  strne r3, [ip, #4]
  mov r3, r1, lsr #16
  ands  r3, r3, #255
  orrne r3, lr, r3
  strne r3, [ip, #8]
  movs  r3, r1, lsr #24
  orrne r3, lr, r3
  strne r3, [ip, #12]
.L3594:
  subs  r4, r4, #4
  ldr r0, [r0, #4]
  addne ip, ip, #16
  beq .L4000
.L3604:
  mov r1, #0
.L3605:
  ands  r3, r0, #255
  orr r3, lr, r3
  strne r3, [ip, r1, asl #2]
  add r1, r1, #1
  cmp r4, r1
  mov r0, r0, lsr #8
  bhi .L3605
  b .L4000
.L3796:
  ldrh  r4, [r7, #0]
  mov r2, r4, asl #22
  mov r3, r4, lsr #12
  mov r2, r2, lsr #22
  tst r4, #2048
  mov r0, r3, asl #4
  add r3, sl, r2, asl #5
  addne r3, r3, r9
  tst r4, #1024
  bne .L4039
  cmp r5, #0
  ldr r2, [r3, #0]
  beq .L3816
  mov r3, r1, asl #2
  mov r1, r2, lsr r3
  mov r2, #0
.L3824:
  ands  r3, r1, #15
  orr r3, lr, r3
  orr r3, r0, r3
  strne r3, [ip, r2, asl #2]
  add r2, r2, #1
  cmp r5, r2
  mov r1, r1, lsr #4
  bne .L3824
.L4015:
  add ip, ip, r5, asl #2
.L3816:
  rsb fp, r5, fp
  add r7, r7, #2
  b .L3794
.L3888:
  cmp r4, #0
  ldr r2, [r3, #0]
  beq .L3890
  mov r3, r1, asl #2
  mov r1, r2, lsr r3
  mov r2, #0
.L3898:
  ands  r3, r1, #15
  orr r3, lr, r3
  orr r3, r8, r3
  strne r3, [ip, r2, asl #2]
  add r2, r2, #1
  cmp r4, r2
  mov r1, r1, lsr #4
  bne .L3898
  add ip, ip, r4, asl #2
  b .L3890
.L3614:
  cmp r4, #3
  bhi .L4040
  subs  r5, r6, #4
  ldr r1, [r8, #0]
  beq .L3649
  mov r3, r4, asl #3
  mov r1, r1, lsr r3
  mov r4, #0
.L3651:
  ands  r3, r1, #255
  orr r3, lr, r3
  strne r3, [ip, r4, asl #2]
  add r4, r4, #1
  cmp r5, r4
  mov r1, r1, lsr #8
  bne .L3651
  add r3, ip, r6, asl #2
  sub ip, r3, #16
.L3649:
  ldr r1, [r8, #4]
  cmp r1, #0
  beq .L3656
  ands  r3, r1, #255
  orrne r3, lr, r3
  strne r3, [ip, #0]
  mov r3, r1, lsr #8
  ands  r3, r3, #255
  orrne r3, lr, r3
  strne r3, [ip, #4]
  mov r3, r1, lsr #16
  ands  r3, r3, #255
  orrne r3, lr, r3
  strne r3, [ip, #8]
  movs  r3, r1, lsr #24
  orrne r3, lr, r3
  strne r3, [ip, #12]
  b .L3656
.L3415:
  ldrh  r1, [r7, #0]
  mov r3, r1, asl #22
  mov r3, r3, lsr #22
  tst r1, #2048
  add r5, r2, r3, asl #6
  addne r5, r5, r9
  ands  r6, r1, #1024
  bne .L4041
  cmp r4, #3
  bls .L3503
  cmp r0, #0
  ldr r1, [r5, #4]
  beq .L3480
  mov r3, r4, asl #3
  sub r3, r3, #32
  mov r1, r1, lsr r3
  mov r4, r6
.L3506:
  ands  r3, r1, #255
  orr r3, lr, r3
  strne r3, [ip, r4, asl #2]
  add r4, r4, #1
  cmp r0, r4
  mov r1, r1, lsr #8
  bne .L3506
.L4002:
  add ip, ip, r0, asl #2
.L3480:
  rsb fp, r0, fp
  add r7, r7, #2
  b .L3413
.L4037:
  cmp r6, #0
  ldr r1, [r8, #0]
  beq .L3618
  mov r3, r4, asl #3
  sub r3, r3, #32
  mov r1, r1, asl r3
  mov r4, #0
.L3620:
  movs  r3, r1, lsr #24
  orr r3, lr, r3
  strne r3, [ip, r4, asl #2]
  add r4, r4, #1
  cmp r6, r4
  mov r1, r1, asl #8
  bne .L3620
  add ip, ip, r6, asl #2
.L4042:
  add r7, r7, #2
  b .L3611
.L4036:
  cmp fp, #0
  ldr r0, [r0, #0]
  beq .L4000
  mov r3, r1, asl #2
  mov r0, r0, asl r3
  mov r1, #0
.L3803:
  movs  r3, r0, lsr #28
  orr r3, lr, r3
  orr r3, r2, r3
  strne r3, [ip, r1, asl #2]
  add r1, r1, #1
  cmp fp, r1
  mov r0, r0, asl #4
  bne .L3803
  b .L4000
.L4041:
  cmp r4, #3
  bls .L3478
  cmp r0, #0
  ldr r1, [r5, #0]
  beq .L3480
  mov r3, r4, asl #3
  sub r3, r3, #32
  mov r1, r1, asl r3
  mov r4, #0
.L3482:
  movs  r3, r1, lsr #24
  orr r3, lr, r3
  strne r3, [ip, r4, asl #2]
  add r4, r4, #1
  cmp r0, r4
  mov r1, r1, asl #8
  bne .L3482
  b .L4002
.L4039:
  cmp r5, #0
  ldr r2, [r3, #0]
  beq .L3816
  mov r3, r1, asl #2
  mov r1, r2, asl r3
  mov r2, #0
.L3818:
  movs  r3, r1, lsr #28
  orr r3, lr, r3
  orr r3, r0, r3
  strne r3, [ip, r2, asl #2]
  add r2, r2, #1
  cmp r5, r2
  mov r1, r1, asl #4
  bne .L3818
  b .L4015
.L4038:
  cmp r4, #3
  bls .L3421
  cmp fp, #0
  ldr r0, [r0, #0]
  beq .L4000
  mov r3, r4, asl #3
  sub r3, r3, #32
  mov r0, r0, asl r3
  mov r2, #0
.L3425:
  movs  r3, r0, lsr #24
  orr r3, lr, r3
  strne r3, [ip, r2, asl #2]
  add r2, r2, #1
  cmp fp, r2
  mov r0, r0, asl #8
  bne .L3425
  b .L4000
.L4040:
  cmp r6, #0
  ldr r1, [r8, #4]
  beq .L3618
  mov r3, r4, asl #3
  sub r3, r3, #32
  mov r1, r1, lsr r3
  mov r4, sl
.L3644:
  ands  r3, r1, #255
  orr r3, lr, r3
  strne r3, [ip, r4, asl #2]
  add r4, r4, #1
  cmp r6, r4
  mov r1, r1, lsr #8
  bne .L3644
  add ip, ip, r6, asl #2
  b .L4042
.L3421:
  mov r3, r4, asl #3
  ldr r1, [r0, #4]
  add r2, fp, r4
  sub r3, r3, #32
  cmp r2, #4
  mov r1, r1, asl r3
  bhi .L3429
  cmp fp, #0
  movne r2, #0
  beq .L4000
.L3444:
  movs  r3, r1, lsr #24
  orr r3, lr, r3
  strne r3, [ip, r2, asl #2]
  add r2, r2, #1
  cmp fp, r2
  mov r1, r1, asl #8
  bne .L3444
  b .L4000
.L3478:
  subs  r6, r0, #4
  ldr r1, [r5, #4]
  beq .L3487
  mov r3, r4, asl #3
  sub r3, r3, #32
  mov r1, r1, asl r3
  mov r4, #0
.L3489:
  movs  r3, r1, lsr #24
  orr r3, lr, r3
  strne r3, [ip, r4, asl #2]
  add r4, r4, #1
  cmp r6, r4
  mov r1, r1, asl #8
  bne .L3489
  add r3, ip, r0, asl #2
  sub ip, r3, #16
.L3487:
  ldr r1, [r5, #0]
  cmp r1, #0
  beq .L3518
  ands  r3, r1, #255
  orrne r3, lr, r3
  strne r3, [ip, #12]
  mov r3, r1, lsr #8
  ands  r3, r3, #255
  orrne r3, lr, r3
  strne r3, [ip, #8]
  mov r3, r1, lsr #16
  ands  r3, r3, #255
  orrne r3, lr, r3
  strne r3, [ip, #4]
  movs  r3, r1, lsr #24
  orrne r3, lr, r3
  strne r3, [ip, #0]
.L3518:
  add ip, ip, #16
  b .L3480
.L3448:
  add r2, fp, r4
  ldr r3, [r0, #0]
  cmp r2, #4
  mov r1, r4, asl #3
  mov r2, r3, lsr r1
  bhi .L3455
  cmp fp, #0
  movne r1, #0
  beq .L4000
.L3470:
  ands  r3, r2, #255
  orr r3, lr, r3
  strne r3, [ip, r1, asl #2]
  add r1, r1, #1
  cmp fp, r1
  mov r2, r2, lsr #8
  bne .L3470
  b .L4000
.L3503:
  subs  r6, r0, #4
  ldr r1, [r5, #0]
  beq .L3511
  mov r3, r4, asl #3
  mov r1, r1, lsr r3
  mov r4, #0
.L3513:
  ands  r3, r1, #255
  orr r3, lr, r3
  strne r3, [ip, r4, asl #2]
  add r4, r4, #1
  cmp r6, r4
  mov r1, r1, lsr #8
  bne .L3513
  add r3, ip, r0, asl #2
  sub ip, r3, #16
.L3511:
  ldr r1, [r5, #4]
  cmp r1, #0
  beq .L3518
  ands  r3, r1, #255
  orrne r3, lr, r3
  strne r3, [ip, #0]
  mov r3, r1, lsr #8
  ands  r3, r3, #255
  orrne r3, lr, r3
  strne r3, [ip, #4]
  mov r3, r1, lsr #16
  ands  r3, r3, #255
  orrne r3, lr, r3
  strne r3, [ip, #8]
  movs  r3, r1, lsr #24
  orrne r3, lr, r3
  strne r3, [ip, #12]
  add ip, ip, #16
  b .L3480
.L3429:
  rsbs  r4, r4, #4
  beq .L3432
  mov r2, #0
.L3434:
  movs  r3, r1, lsr #24
  orr r3, lr, r3
  strne r3, [ip, r2, asl #2]
  add r2, r2, #1
  cmp r4, r2
  mov r1, r1, asl #8
  bne .L3434
  add ip, ip, r4, asl #2
.L3432:
  subs  r1, fp, r4
  ldr r0, [r0, #0]
  beq .L4000
  mov r2, #0
.L3440:
  movs  r3, r0, lsr #24
  orr r3, lr, r3
  strne r3, [ip, r2, asl #2]
  add r2, r2, #1
  cmp r1, r2
  mov r0, r0, asl #8
  bne .L3440
  b .L4000
.L3455:
  rsbs  r4, r4, #4
  beq .L3458
  mov r1, #0
.L3460:
  ands  r3, r2, #255
  orr r3, lr, r3
  strne r3, [ip, r1, asl #2]
  add r1, r1, #1
  cmp r4, r1
  mov r2, r2, lsr #8
  bne .L3460
  add ip, ip, r4, asl #2
.L3458:
  subs  r1, fp, r4
  ldr r0, [r0, #4]
  beq .L4000
  mov r2, #0
.L3466:
  ands  r3, r0, #255
  orr r3, lr, r3
  strne r3, [ip, r2, asl #2]
  add r2, r2, #1
  cmp r1, r2
  mov r0, r0, lsr #8
  bne .L3466
  b .L4000
  .size render_scanline_text_transparent_color32, .-render_scanline_text_transparent_color32
  .align  2
  .global render_scanline_text_base_alpha
  .type render_scanline_text_base_alpha, %function
render_scanline_text_base_alpha:
  @ args = 0, pretend = 0, frame = 16
  @ frame_needed = 0, uses_anonymous_args = 0
  stmfd sp!, {r4, r5, r6, r7, r8, r9, sl, fp, lr}
  ldr r7, .L4840
  add lr, r0, #7
  ldrh  ip, [r7, #80]
  sub sp, sp, #16
  mov lr, ip, asr lr
  mov r4, ip, asr r0
  mov r5, ip, lsr #12
  and r5, r5, #2
  mov ip, ip, asl #26
  orr r5, r5, ip, lsr #31
  and lr, lr, #2
  and r4, r4, #1
  orr r4, r4, lr
  mov ip, r5, asl #25
  orr r8, ip, r4, asl #9
  tst r8, #512
  mov r6, r0
  mov lr, r1
  mov r9, r2
  mov fp, r3
  mov r5, r5, asl #9
  beq .L4813
  add r0, r7, r0, asl #2
  ldrh  r1, [r7, #6]
  ldrh  r3, [r0, #18]
  add r2, r7, r6, asl #1
  add sl, r1, r3
  ldrh  r3, [r0, #16]
  ldrh  r7, [r2, #8]
  mov r6, sl, asl #23
  mov r6, r6, lsr #23
  add r3, r3, lr
  mov r4, r7, lsr #14
  cmp r6, #255
  movls r1, #0
  movhi r1, #1
  mov ip, r3, asl #23
  ldr r3, .L4840+4
  ands  r1, r1, r4, lsr #1
  mov r2, r7, asl #3
  ldr r1, [r3, r4, asl #2]
  ldr r0, .L4840+8
  subne r3, r6, #256
  movne r3, r3, lsr #3
  moveq r3, sl, asl #3
  and r2, r2, #63488
  addne r3, r3, r1, lsr #3
  andeq r3, r3, #1984
  add r2, r2, r0
  addne r1, r2, r3, asl #6
  addeq r1, r2, r3
  mov ip, ip, lsr #23
  tst r4, #1
  andeq ip, ip, #255
  rsb r9, lr, r9
  moveq r3, ip, lsr #3
  str r9, [sp, #12]
  addeq sl, r1, r3, asl #1
  add r9, fp, lr, asl #2
  streq r1, [sp, #0]
  bne .L4814
  tst r7, #128
  bne .L4815
.L4056:
  and r1, ip, #255
  and r3, r6, #7
  mov r2, r7, asl #12
  mov r3, r3, asl #2
  rsb fp, r1, #256
  and r2, r2, #49152
  ldr r1, [sp, #12]
  add r2, r2, r3
  mov r3, r3, asl #1
  cmp r1, fp
  rsb r3, r3, #28
  add r0, r2, r0
  str r3, [sp, #8]
  and r1, ip, #7
  bls .L4816
  cmp r1, #0
  moveq r4, r1
  beq .L4636
  ldrh  ip, [sl, #0]
  rsb r4, r1, #8
  mov r2, ip, asl #22
  mov r2, r2, lsr #22
  tst ip, #2048
  mov r3, ip, lsr #12
  mov lr, r3, asl #4
  add r3, r0, r2, asl #5
  ldrne r2, [sp, #8]
  addne r3, r3, r2
  tst ip, #1024
  bne .L4817
  cmp r4, #0
  ldr r2, [r3, #0]
  beq .L4641
  mov r3, r1, asl #2
  mov r1, r2, lsr r3
  mov ip, #0
  mov r2, r9
.L4650:
  ands  r3, r1, #15
  orr r3, r8, r3
  orr r3, lr, r3
  add ip, ip, #1
  strne r3, [r2, #0]
  streq r5, [r2, #0]
  cmp r4, ip
  mov r1, r1, lsr #4
  add r2, r2, #4
  bne .L4650
  add r9, r9, r4, asl #2
.L4641:
  add sl, sl, #2
.L4636:
  rsb r3, r4, fp
  movs  r1, r3, lsr #3
  beq .L4656
  mov r4, r9
  mov r7, #0
  b .L4658
.L4818:
  ldr r2, [r3, #0]
  cmp r2, #0
  beq .L4689
  ands  r3, r2, #15
  orrne r3, r8, r3
  orrne r3, r6, r3
  strne r3, [r4, #28]
  mov r3, r2, lsr #4
  streq r5, [r4, #28]
  ands  r3, r3, #15
  orrne r3, r8, r3
  orrne r3, r6, r3
  strne r3, [r4, #24]
  mov r3, r2, lsr #8
  streq r5, [r4, #24]
  ands  r3, r3, #15
  orrne r3, r8, r3
  orrne r3, r6, r3
  strne r3, [r4, #20]
  mov r3, r2, lsr #12
  streq r5, [r4, #20]
  ands  r3, r3, #15
  orrne r3, r8, r3
  orrne r3, r6, r3
  strne r3, [r4, #16]
  mov r3, r2, lsr #16
  streq r5, [r4, #16]
  ands  r3, r3, #15
  orrne r3, r8, r3
  orrne r3, r6, r3
  strne r3, [r4, #12]
  mov r3, r2, lsr #20
  streq r5, [r4, #12]
  ands  r3, r3, #15
  orrne r3, r8, r3
  orrne r3, r6, r3
  strne r3, [r4, #8]
  mov r3, r2, lsr #24
  streq r5, [r4, #8]
  ands  r3, r3, #15
  orrne r3, r8, r3
  orrne r3, r6, r3
  strne r3, [r4, #4]
  streq r5, [r4, #4]
  movs  r3, r2, lsr #28
  orrne r3, r8, r3
  orrne r3, r6, r3
  strne r3, [r4, #0]
  streq r5, [r4, #0]
.L4688:
  add r7, r7, #1
  cmp r1, r7
  add r4, r4, #32
  beq .L4714
.L4819:
  add sl, sl, #2
.L4658:
  ldrh  ip, [sl, #0]
  mov r2, ip, asl #22
  mov r2, r2, lsr #22
  tst ip, #2048
  mov r3, ip, lsr #12
  mov r6, r3, asl #4
  add r3, r0, r2, asl #5
  ldrne r2, [sp, #8]
  addne r3, r3, r2
  tst ip, #1024
  bne .L4818
  ldr r2, [r3, #0]
  cmp r2, #0
  beq .L4689
  ands  r3, r2, #15
  orrne r3, r8, r3
  orrne r3, r6, r3
  strne r3, [r4, #0]
  mov r3, r2, lsr #4
  streq r5, [r4, #0]
  ands  r3, r3, #15
  orrne r3, r8, r3
  orrne r3, r6, r3
  strne r3, [r4, #4]
  mov r3, r2, lsr #8
  streq r5, [r4, #4]
  ands  r3, r3, #15
  orrne r3, r8, r3
  orrne r3, r6, r3
  strne r3, [r4, #8]
  mov r3, r2, lsr #12
  streq r5, [r4, #8]
  ands  r3, r3, #15
  orrne r3, r8, r3
  orrne r3, r6, r3
  strne r3, [r4, #12]
  mov r3, r2, lsr #16
  streq r5, [r4, #12]
  ands  r3, r3, #15
  orrne r3, r8, r3
  orrne r3, r6, r3
  strne r3, [r4, #16]
  mov r3, r2, lsr #20
  streq r5, [r4, #16]
  ands  r3, r3, #15
  orrne r3, r8, r3
  orrne r3, r6, r3
  strne r3, [r4, #20]
  mov r3, r2, lsr #24
  streq r5, [r4, #20]
  ands  r3, r3, #15
  orrne r3, r8, r3
  orrne r3, r6, r3
  strne r3, [r4, #24]
  streq r5, [r4, #24]
  movs  r3, r2, lsr #28
  orrne r3, r8, r3
  orrne r3, r6, r3
  strne r3, [r4, #28]
  bne .L4688
  str r5, [r4, #28]
.L4836:
  add r7, r7, #1
  cmp r1, r7
  add r4, r4, #32
  bne .L4819
.L4714:
  add r9, r9, r1, asl #5
.L4656:
  ldr r3, [sp, #12]
  rsb lr, fp, r3
  movs  r1, lr, lsr #3
  ldreq r1, [sp, #0]
  beq .L4718
  ldr r7, [sp, #0]
  mov r4, r9
  mov sl, #0
  b .L4719
.L4821:
  ldr r2, [r3, #0]
  cmp r2, #0
  beq .L4750
  ands  r3, r2, #15
  orrne r3, r8, r3
  orrne r3, r6, r3
  strne r3, [r4, #28]
  mov r3, r2, lsr #4
  streq r5, [r4, #28]
  ands  r3, r3, #15
  orrne r3, r8, r3
  orrne r3, r6, r3
  strne r3, [r4, #24]
  mov r3, r2, lsr #8
  streq r5, [r4, #24]
  ands  r3, r3, #15
  orrne r3, r8, r3
  orrne r3, r6, r3
  strne r3, [r4, #20]
  mov r3, r2, lsr #12
  streq r5, [r4, #20]
  ands  r3, r3, #15
  orrne r3, r8, r3
  orrne r3, r6, r3
  strne r3, [r4, #16]
  mov r3, r2, lsr #16
  streq r5, [r4, #16]
  ands  r3, r3, #15
  orrne r3, r8, r3
  orrne r3, r6, r3
  strne r3, [r4, #12]
  mov r3, r2, lsr #20
  streq r5, [r4, #12]
  ands  r3, r3, #15
  orrne r3, r8, r3
  orrne r3, r6, r3
  strne r3, [r4, #8]
  mov r3, r2, lsr #24
  streq r5, [r4, #8]
  ands  r3, r3, #15
  orrne r3, r8, r3
  orrne r3, r6, r3
  strne r3, [r4, #4]
  streq r5, [r4, #4]
  movs  r3, r2, lsr #28
  orrne r3, r8, r3
  orrne r3, r6, r3
  strne r3, [r4, #0]
  streq r5, [r4, #0]
.L4749:
  add sl, sl, #1
  cmp r1, sl
  add r4, r4, #32
  add r7, r7, #2
  beq .L4820
.L4719:
  ldrh  ip, [r7, #0]
  mov r2, ip, asl #22
  mov r2, r2, lsr #22
  tst ip, #2048
  mov r3, ip, lsr #12
  mov r6, r3, asl #4
  add r3, r0, r2, asl #5
  ldrne r2, [sp, #8]
  addne r3, r3, r2
  tst ip, #1024
  bne .L4821
  ldr r2, [r3, #0]
  cmp r2, #0
  beq .L4750
  ands  r3, r2, #15
  orrne r3, r8, r3
  orrne r3, r6, r3
  strne r3, [r4, #0]
  mov r3, r2, lsr #4
  streq r5, [r4, #0]
  ands  r3, r3, #15
  orrne r3, r8, r3
  orrne r3, r6, r3
  strne r3, [r4, #4]
  mov r3, r2, lsr #8
  streq r5, [r4, #4]
  ands  r3, r3, #15
  orrne r3, r8, r3
  orrne r3, r6, r3
  strne r3, [r4, #8]
  mov r3, r2, lsr #12
  streq r5, [r4, #8]
  ands  r3, r3, #15
  orrne r3, r8, r3
  orrne r3, r6, r3
  strne r3, [r4, #12]
  mov r3, r2, lsr #16
  streq r5, [r4, #12]
  ands  r3, r3, #15
  orrne r3, r8, r3
  orrne r3, r6, r3
  strne r3, [r4, #16]
  mov r3, r2, lsr #20
  streq r5, [r4, #16]
  ands  r3, r3, #15
  orrne r3, r8, r3
  orrne r3, r6, r3
  strne r3, [r4, #20]
  mov r3, r2, lsr #24
  streq r5, [r4, #20]
  ands  r3, r3, #15
  orrne r3, r8, r3
  orrne r3, r6, r3
  strne r3, [r4, #24]
  streq r5, [r4, #24]
  movs  r3, r2, lsr #28
  orrne r3, r8, r3
  orrne r3, r6, r3
  strne r3, [r4, #28]
  bne .L4749
  str r5, [r4, #28]
.L4837:
  add sl, sl, #1
  cmp r1, sl
  add r4, r4, #32
  add r7, r7, #2
  bne .L4719
.L4820:
  ldr r3, [sp, #0]
  add r9, r9, r1, asl #5
  add r1, r3, r1, asl #1
.L4718:
  ands  ip, lr, #7
  beq .L4791
  ldrh  r1, [r1, #0]
  mov r3, r1, asl #22
  tst r1, #2048
  mov r3, r3, lsr #22
  add r0, r0, r3, asl #5
  ldrne r3, [sp, #8]
  mov r2, r1, lsr #12
  addne r0, r0, r3
  tst r1, #1024
  mov r2, r2, asl #4
  ldreq r0, [r0, #0]
  moveq r1, #0
  beq .L4786
  ldr r0, [r0, #0]
  mov r1, #0
.L4781:
  movs  r3, r0, lsr #28
  orr r3, r8, r3
  orr r3, r2, r3
  add r1, r1, #1
  strne r3, [r9, #0]
  streq r5, [r9, #0]
  cmp ip, r1
  mov r0, r0, asl #4
  add r9, r9, #4
  bne .L4781
.L4791:
  add sp, sp, #16
  ldmfd sp!, {r4, r5, r6, r7, r8, r9, sl, fp, pc}
.L4815:
  and r1, ip, #255
  and r3, r6, #7
  mov r2, r7, asl #12
  mov r3, r3, asl #3
  rsb fp, r1, #256
  and r2, r2, #49152
  ldr r1, [sp, #12]
  add r2, r2, r3
  mov r3, r3, asl #1
  rsb r3, r3, #56
  cmp r1, fp
  add r0, r2, r0
  str r3, [sp, #4]
  and r4, ip, #7
  bls .L4822
  cmp r4, #0
  moveq r2, r4
  beq .L4296
  ldrh  ip, [sl, #0]
  rsb r2, r4, #8
  tst ip, #2048
  mov r3, ip, asl #22
  ldrne r1, [sp, #4]
  mov r3, r3, lsr #22
  add lr, r0, r3, asl #6
  addne lr, lr, r1
  ands  ip, ip, #1024
  bne .L4823
  cmp r4, #3
  bls .L4331
  cmp r2, #0
  ldr r1, [lr, #4]
  beq .L4303
  mov r3, r4, asl #3
  sub r3, r3, #32
  mov r1, r1, lsr r3
  mov r4, ip
  mov ip, r9
.L4334:
  ands  r3, r1, #255
  orr r3, r8, r3
  add r4, r4, #1
  strne r3, [ip, #0]
  streq r5, [ip, #0]
  cmp r2, r4
  mov r1, r1, lsr #8
  add ip, ip, #4
  bne .L4334
  add r9, r9, r2, asl #2
.L4303:
  add sl, sl, #2
.L4296:
  rsb r3, r2, fp
  movs  r2, r3, lsr #3
  beq .L4360
  mov r4, r9
  mov r7, #0
  b .L4362
.L4824:
  ldr ip, [r6, #4]
  add r7, r7, #1
  ands  r3, ip, #255
  orrne r3, r8, r3
  strne r3, [r4, #12]
  mov r3, ip, lsr #8
  streq r5, [r4, #12]
  ands  r3, r3, #255
  orrne r3, r8, r3
  strne r3, [r4, #8]
  mov r3, ip, lsr #16
  streq r5, [r4, #8]
  ands  r3, r3, #255
  orrne r3, r8, r3
  strne r3, [r4, #4]
  streq r5, [r4, #4]
  movs  r3, ip, lsr #24
  orrne r3, r8, r3
  strne r3, [r4, #0]
  streq r5, [r4, #0]
  ldr ip, [r6, #0]
  ands  r3, ip, #255
  orrne r3, r8, r3
  strne r3, [r4, #28]
  mov r3, ip, lsr #8
  streq r5, [r4, #28]
  ands  r3, r3, #255
  orrne r3, r8, r3
  strne r3, [r4, #24]
  mov r3, ip, lsr #16
  streq r5, [r4, #24]
  ands  r3, r3, #255
  orrne r3, r8, r3
  strne r3, [r4, #20]
  streq r5, [r4, #20]
  movs  r3, ip, lsr #24
  orrne r3, r8, r3
  strne r3, [r4, #16]
  streq r5, [r4, #16]
  cmp r2, r7
  add r4, r4, #32
  beq .L4414
.L4825:
  add sl, sl, #2
.L4362:
  ldrh  ip, [sl, #0]
  mov r3, ip, asl #22
  mov r3, r3, lsr #22
  tst ip, #2048
  add r6, r0, r3, asl #6
  ldrne r3, [sp, #4]
  addne r6, r6, r3
  tst ip, #1024
  bne .L4824
  ldr ip, [r6, #0]
  add r7, r7, #1
  ands  r3, ip, #255
  orrne r3, r8, r3
  strne r3, [r4, #0]
  mov r3, ip, lsr #8
  streq r5, [r4, #0]
  ands  r3, r3, #255
  orrne r3, r8, r3
  strne r3, [r4, #4]
  mov r3, ip, lsr #16
  streq r5, [r4, #4]
  ands  r3, r3, #255
  orrne r3, r8, r3
  strne r3, [r4, #8]
  streq r5, [r4, #8]
  movs  r3, ip, lsr #24
  orrne r3, r8, r3
  strne r3, [r4, #12]
  streq r5, [r4, #12]
  ldr ip, [r6, #4]
  ands  r3, ip, #255
  orrne r3, r8, r3
  strne r3, [r4, #16]
  mov r3, ip, lsr #8
  streq r5, [r4, #16]
  ands  r3, r3, #255
  orrne r3, r8, r3
  strne r3, [r4, #20]
  mov r3, ip, lsr #16
  streq r5, [r4, #20]
  ands  r3, r3, #255
  orrne r3, r8, r3
  strne r3, [r4, #24]
  streq r5, [r4, #24]
  movs  r3, ip, lsr #24
  orrne r3, r8, r3
  strne r3, [r4, #28]
  streq r5, [r4, #28]
  cmp r2, r7
  add r4, r4, #32
  bne .L4825
.L4414:
  add r9, r9, r2, asl #5
.L4360:
  ldr ip, [sp, #12]
  rsb r2, fp, ip
  movs  r1, r2, lsr #3
  ldreq r1, [sp, #0]
  beq .L4418
  ldr r7, [sp, #0]
  mov r4, r9
  mov sl, #0
  b .L4419
.L4827:
  ldr ip, [r6, #4]
  add sl, sl, #1
  ands  r3, ip, #255
  orrne r3, r8, r3
  strne r3, [r4, #12]
  mov r3, ip, lsr #8
  streq r5, [r4, #12]
  ands  r3, r3, #255
  orrne r3, r8, r3
  strne r3, [r4, #8]
  mov r3, ip, lsr #16
  streq r5, [r4, #8]
  ands  r3, r3, #255
  orrne r3, r8, r3
  strne r3, [r4, #4]
  streq r5, [r4, #4]
  movs  r3, ip, lsr #24
  orrne r3, r8, r3
  strne r3, [r4, #0]
  streq r5, [r4, #0]
  ldr ip, [r6, #0]
  add r7, r7, #2
  ands  r3, ip, #255
  orrne r3, r8, r3
  strne r3, [r4, #28]
  mov r3, ip, lsr #8
  streq r5, [r4, #28]
  ands  r3, r3, #255
  orrne r3, r8, r3
  strne r3, [r4, #24]
  mov r3, ip, lsr #16
  streq r5, [r4, #24]
  ands  r3, r3, #255
  orrne r3, r8, r3
  strne r3, [r4, #20]
  streq r5, [r4, #20]
  movs  r3, ip, lsr #24
  orrne r3, r8, r3
  strne r3, [r4, #16]
  streq r5, [r4, #16]
  cmp r1, sl
  add r4, r4, #32
  beq .L4826
.L4419:
  ldrh  ip, [r7, #0]
  mov r3, ip, asl #22
  mov r3, r3, lsr #22
  tst ip, #2048
  add r6, r0, r3, asl #6
  ldrne r3, [sp, #4]
  addne r6, r6, r3
  tst ip, #1024
  bne .L4827
  ldr ip, [r6, #0]
  add sl, sl, #1
  ands  r3, ip, #255
  orrne r3, r8, r3
  strne r3, [r4, #0]
  mov r3, ip, lsr #8
  streq r5, [r4, #0]
  ands  r3, r3, #255
  orrne r3, r8, r3
  strne r3, [r4, #4]
  mov r3, ip, lsr #16
  streq r5, [r4, #4]
  ands  r3, r3, #255
  orrne r3, r8, r3
  strne r3, [r4, #8]
  streq r5, [r4, #8]
  movs  r3, ip, lsr #24
  orrne r3, r8, r3
  strne r3, [r4, #12]
  streq r5, [r4, #12]
  ldr ip, [r6, #4]
  add r7, r7, #2
  ands  r3, ip, #255
  orrne r3, r8, r3
  strne r3, [r4, #16]
  mov r3, ip, lsr #8
  streq r5, [r4, #16]
  ands  r3, r3, #255
  orrne r3, r8, r3
  strne r3, [r4, #20]
  mov r3, ip, lsr #16
  streq r5, [r4, #20]
  ands  r3, r3, #255
  orrne r3, r8, r3
  strne r3, [r4, #24]
  streq r5, [r4, #24]
  movs  r3, ip, lsr #24
  orrne r3, r8, r3
  strne r3, [r4, #28]
  streq r5, [r4, #28]
  cmp r1, sl
  add r4, r4, #32
  bne .L4419
.L4826:
  ldr ip, [sp, #0]
  add r9, r9, r1, asl #5
  add r1, ip, r1, asl #1
.L4418:
  ands  ip, r2, #7
  beq .L4791
  ldrh  r1, [r1, #0]
  tst r1, #2048
  mov r3, r1, asl #22
  ldrne r2, [sp, #4]
  mov r3, r3, lsr #22
  add r0, r0, r3, asl #6
  addne r0, r0, r2
  tst r1, #1024
  beq .L4475
  cmp ip, #3
  ldrls r0, [r0, #4]
  bhi .L4828
.L4492:
  mov r1, #0
.L4493:
  movs  r3, r0, lsr #24
  orr r3, r8, r3
  add r1, r1, #1
  strne r3, [r9, #0]
  streq r5, [r9, #0]
  cmp r1, ip
  mov r0, r0, asl #8
  add r9, r9, #4
  bcc .L4493
  b .L4791
.L4814:
  cmp ip, #255
  subhi ip, ip, #256
  movhi r3, ip, lsr #3
  movls r3, ip, lsr #3
  addhi r3, r1, r3, asl #1
  addls sl, r1, r3, asl #1
  addls r1, r1, #2048
  addhi sl, r3, #2048
  strhi r1, [sp, #0]
  strls r1, [sp, #0]
  tst r7, #128
  beq .L4056
  b .L4815
.L4813:
  add sp, sp, #16
  ldmfd sp!, {r4, r5, r6, r7, r8, r9, sl, fp, lr}
  b render_scanline_text_base_color32
.L4816:
  cmp r1, #0
  beq .L4521
  ldr r2, [sp, #12]
  rsb r4, r1, #8
  cmp r2, r4
  bcc .L4829
  ldrh  ip, [sl, #0]
  mov r2, ip, asl #22
  mov r2, r2, lsr #22
  tst ip, #2048
  mov r3, ip, lsr #12
  mov lr, r3, asl #4
  add r3, r0, r2, asl #5
  ldrne r2, [sp, #8]
  addne r3, r3, r2
  tst ip, #1024
  beq .L4543
  cmp r4, #0
  ldr r2, [r3, #0]
  beq .L4545
  mov r3, r1, asl #2
  mov r1, r2, asl r3
  mov ip, #0
  mov r2, r9
.L4547:
  movs  r3, r1, lsr #28
  orr r3, r8, r3
  orr r3, lr, r3
  add ip, ip, #1
  strne r3, [r2, #0]
  streq r5, [r2, #0]
  cmp r4, ip
  mov r1, r1, asl #4
  add r2, r2, #4
  bne .L4547
.L4806:
  add r9, r9, r4, asl #2
.L4545:
  ldr r3, [sp, #12]
  add sl, sl, #2
  rsb r3, r4, r3
  str r3, [sp, #12]
.L4521:
  ldr ip, [sp, #12]
  movs  fp, ip, lsr #3
  beq .L4560
  mov r4, r9
  mov r7, sl
  mov lr, #0
  b .L4562
.L4831:
  ldr r2, [r3, #0]
  cmp r2, #0
  beq .L4593
  ands  r3, r2, #15
  orrne r3, r8, r3
  orrne r3, r6, r3
  strne r3, [r4, #28]
  mov r3, r2, lsr #4
  streq r5, [r4, #28]
  ands  r3, r3, #15
  orrne r3, r8, r3
  orrne r3, r6, r3
  strne r3, [r4, #24]
  mov r3, r2, lsr #8
  streq r5, [r4, #24]
  ands  r3, r3, #15
  orrne r3, r8, r3
  orrne r3, r6, r3
  strne r3, [r4, #20]
  mov r3, r2, lsr #12
  streq r5, [r4, #20]
  ands  r3, r3, #15
  orrne r3, r8, r3
  orrne r3, r6, r3
  strne r3, [r4, #16]
  mov r3, r2, lsr #16
  streq r5, [r4, #16]
  ands  r3, r3, #15
  orrne r3, r8, r3
  orrne r3, r6, r3
  strne r3, [r4, #12]
  mov r3, r2, lsr #20
  streq r5, [r4, #12]
  ands  r3, r3, #15
  orrne r3, r8, r3
  orrne r3, r6, r3
  strne r3, [r4, #8]
  mov r3, r2, lsr #24
  streq r5, [r4, #8]
  ands  r3, r3, #15
  orrne r3, r8, r3
  orrne r3, r6, r3
  strne r3, [r4, #4]
  streq r5, [r4, #4]
  movs  r3, r2, lsr #28
  orrne r3, r8, r3
  orrne r3, r6, r3
  strne r3, [r4, #0]
  streq r5, [r4, #0]
.L4592:
  add lr, lr, #1
  cmp fp, lr
  add r4, r4, #32
  add r7, r7, #2
  beq .L4830
.L4562:
  ldrh  ip, [r7, #0]
  tst ip, #2048
  mov r2, ip, asl #22
  mov r3, ip, lsr #12
  ldrne r1, [sp, #8]
  mov r2, r2, lsr #22
  mov r6, r3, asl #4
  add r3, r0, r2, asl #5
  addne r3, r3, r1
  tst ip, #1024
  bne .L4831
  ldr r2, [r3, #0]
  cmp r2, #0
  beq .L4593
  ands  r3, r2, #15
  orrne r3, r8, r3
  orrne r3, r6, r3
  strne r3, [r4, #0]
  mov r3, r2, lsr #4
  streq r5, [r4, #0]
  ands  r3, r3, #15
  orrne r3, r8, r3
  orrne r3, r6, r3
  strne r3, [r4, #4]
  mov r3, r2, lsr #8
  streq r5, [r4, #4]
  ands  r3, r3, #15
  orrne r3, r8, r3
  orrne r3, r6, r3
  strne r3, [r4, #8]
  mov r3, r2, lsr #12
  streq r5, [r4, #8]
  ands  r3, r3, #15
  orrne r3, r8, r3
  orrne r3, r6, r3
  strne r3, [r4, #12]
  mov r3, r2, lsr #16
  streq r5, [r4, #12]
  ands  r3, r3, #15
  orrne r3, r8, r3
  orrne r3, r6, r3
  strne r3, [r4, #16]
  mov r3, r2, lsr #20
  streq r5, [r4, #16]
  ands  r3, r3, #15
  orrne r3, r8, r3
  orrne r3, r6, r3
  strne r3, [r4, #20]
  mov r3, r2, lsr #24
  streq r5, [r4, #20]
  ands  r3, r3, #15
  orrne r3, r8, r3
  orrne r3, r6, r3
  strne r3, [r4, #24]
  streq r5, [r4, #24]
  movs  r3, r2, lsr #28
  orrne r3, r8, r3
  orrne r3, r6, r3
  strne r3, [r4, #28]
  bne .L4592
  str r5, [r4, #28]
.L4838:
  add lr, lr, #1
  cmp fp, lr
  add r4, r4, #32
  add r7, r7, #2
  bne .L4562
.L4830:
  add r9, r9, fp, asl #5
  add sl, sl, fp, asl #1
.L4560:
  ldr r2, [sp, #12]
  ands  r4, r2, #7
  beq .L4791
  ldrh  ip, [sl, #0]
  mov r3, ip, asl #22
  mov r3, r3, lsr #22
  tst ip, #2048
  add r0, r0, r3, asl #5
  ldrne r3, [sp, #8]
  mov r2, ip, lsr #12
  addne r0, r0, r3
  tst ip, #1024
  mov r2, r2, asl #4
  ldreq r0, [r0, #0]
  moveq r1, #0
  beq .L4629
  ldr r0, [r0, #0]
  mov r1, #0
.L4624:
  movs  r3, r0, lsr #28
  orr r3, r8, r3
  orr r3, r2, r3
  add r1, r1, #1
  strne r3, [r9, #0]
  streq r5, [r9, #0]
  cmp r4, r1
  mov r0, r0, asl #4
  add r9, r9, #4
  bne .L4624
  b .L4791
.L4822:
  cmp r4, #0
  beq .L4060
  rsb lr, r4, #8
  cmp r1, lr
  bcc .L4832
  ldrh  ip, [sl, #0]
  tst ip, #2048
  mov r3, ip, asl #22
  ldrne r1, [sp, #4]
  mov r3, r3, lsr #22
  add r2, r0, r3, asl #6
  addne r2, r2, r1
  ands  ip, ip, #1024
  beq .L4131
  cmp r4, #3
  bls .L4133
  cmp lr, #0
  ldr r2, [r2, #0]
  beq .L4135
  mov r3, r4, asl #3
  sub r3, r3, #32
  mov r1, r2, asl r3
  mov ip, r9
  mov r4, #0
.L4137:
  movs  r3, r1, lsr #24
  orr r3, r8, r3
  add r4, r4, #1
  strne r3, [ip, #0]
  streq r5, [ip, #0]
  cmp lr, r4
  mov r1, r1, asl #8
  add ip, ip, #4
  bne .L4137
.L4793:
  add r9, r9, lr, asl #2
.L4135:
  ldr r2, [sp, #12]
  add sl, sl, #2
  rsb r2, lr, r2
  str r2, [sp, #12]
.L4060:
  ldr r3, [sp, #12]
  movs  r2, r3, lsr #3
  beq .L4192
  mov r4, r9
  mov r7, sl
  mov fp, #0
  b .L4194
.L4841:
  .align  2
.L4840:
  .word io_registers
  .word map_widths
  .word vram
.L4834:
  ldr ip, [r6, #4]
  add fp, fp, #1
  ands  r3, ip, #255
  orrne r3, r8, r3
  strne r3, [r4, #12]
  mov r3, ip, lsr #8
  streq r5, [r4, #12]
  ands  r3, r3, #255
  orrne r3, r8, r3
  strne r3, [r4, #8]
  mov r3, ip, lsr #16
  streq r5, [r4, #8]
  ands  r3, r3, #255
  orrne r3, r8, r3
  strne r3, [r4, #4]
  streq r5, [r4, #4]
  movs  r3, ip, lsr #24
  orrne r3, r8, r3
  strne r3, [r4, #0]
  streq r5, [r4, #0]
  ldr ip, [r6, #0]
  add r7, r7, #2
  ands  r3, ip, #255
  orrne r3, r8, r3
  strne r3, [r4, #28]
  mov r3, ip, lsr #8
  streq r5, [r4, #28]
  ands  r3, r3, #255
  orrne r3, r8, r3
  strne r3, [r4, #24]
  mov r3, ip, lsr #16
  streq r5, [r4, #24]
  ands  r3, r3, #255
  orrne r3, r8, r3
  strne r3, [r4, #20]
  streq r5, [r4, #20]
  movs  r3, ip, lsr #24
  orrne r3, r8, r3
  strne r3, [r4, #16]
  streq r5, [r4, #16]
  cmp r2, fp
  add r4, r4, #32
  beq .L4833
.L4194:
  ldrh  ip, [r7, #0]
  tst ip, #2048
  mov r3, ip, asl #22
  ldrne r1, [sp, #4]
  mov r3, r3, lsr #22
  add r6, r0, r3, asl #6
  addne r6, r6, r1
  tst ip, #1024
  bne .L4834
  ldr ip, [r6, #0]
  add fp, fp, #1
  ands  r3, ip, #255
  orrne r3, r8, r3
  strne r3, [r4, #0]
  mov r3, ip, lsr #8
  streq r5, [r4, #0]
  ands  r3, r3, #255
  orrne r3, r8, r3
  strne r3, [r4, #4]
  mov r3, ip, lsr #16
  streq r5, [r4, #4]
  ands  r3, r3, #255
  orrne r3, r8, r3
  strne r3, [r4, #8]
  streq r5, [r4, #8]
  movs  r3, ip, lsr #24
  orrne r3, r8, r3
  strne r3, [r4, #12]
  streq r5, [r4, #12]
  ldr ip, [r6, #4]
  add r7, r7, #2
  ands  r3, ip, #255
  orrne r3, r8, r3
  strne r3, [r4, #16]
  mov r3, ip, lsr #8
  streq r5, [r4, #16]
  ands  r3, r3, #255
  orrne r3, r8, r3
  strne r3, [r4, #20]
  mov r3, ip, lsr #16
  streq r5, [r4, #20]
  ands  r3, r3, #255
  orrne r3, r8, r3
  strne r3, [r4, #24]
  streq r5, [r4, #24]
  movs  r3, ip, lsr #24
  orrne r3, r8, r3
  strne r3, [r4, #28]
  streq r5, [r4, #28]
  cmp r2, fp
  add r4, r4, #32
  bne .L4194
.L4833:
  add r9, r9, r2, asl #5
  add sl, sl, r2, asl #1
.L4192:
  ldr r2, [sp, #12]
  ands  r4, r2, #7
  beq .L4791
  ldrh  ip, [sl, #0]
  mov r3, ip, asl #22
  mov r3, r3, lsr #22
  tst ip, #2048
  add r0, r0, r3, asl #6
  ldrne r3, [sp, #4]
  addne r0, r0, r3
  tst ip, #1024
  bne .L4835
  cmp r4, #3
  ldrls r0, [r0, #0]
  bls .L4288
  ldr r1, [r0, #0]
  ands  r3, r1, #255
  orrne r3, r8, r3
  strne r3, [r9, #0]
  mov r3, r1, lsr #8
  streq r5, [r9, #0]
  ands  r3, r3, #255
  orrne r3, r8, r3
  strne r3, [r9, #4]
  mov r3, r1, lsr #16
  streq r5, [r9, #4]
  ands  r3, r3, #255
  orrne r3, r8, r3
  strne r3, [r9, #8]
  streq r5, [r9, #8]
  movs  r3, r1, lsr #24
  orrne r3, r8, r3
  strne r3, [r9, #12]
  streq r5, [r9, #12]
  subs  r4, r4, #4
  ldr r0, [r0, #4]
  addne r9, r9, #16
  beq .L4791
.L4288:
  mov r1, #0
.L4289:
  ands  r3, r0, #255
  orr r3, r8, r3
  add r1, r1, #1
  strne r3, [r9, #0]
  streq r5, [r9, #0]
  cmp r4, r1
  mov r0, r0, lsr #8
  add r9, r9, #4
  bhi .L4289
  b .L4791
.L4689:
  str r5, [r4, #0]
  str r5, [r4, #4]
  str r5, [r4, #8]
  str r5, [r4, #12]
  str r5, [r4, #16]
  str r5, [r4, #20]
  str r5, [r4, #24]
  str r5, [r4, #28]
  b .L4836
.L4750:
  str r5, [r4, #0]
  str r5, [r4, #4]
  str r5, [r4, #8]
  str r5, [r4, #12]
  str r5, [r4, #16]
  str r5, [r4, #20]
  str r5, [r4, #24]
  str r5, [r4, #28]
  b .L4837
.L4786:
  ands  r3, r0, #15
  orr r3, r8, r3
  orr r3, r2, r3
  add r1, r1, #1
  strne r3, [r9, #0]
  streq r5, [r9, #0]
  cmp ip, r1
  mov r0, r0, lsr #4
  add r9, r9, #4
  bne .L4786
  b .L4791
.L4593:
  str r5, [r4, #0]
  str r5, [r4, #4]
  str r5, [r4, #8]
  str r5, [r4, #12]
  str r5, [r4, #16]
  str r5, [r4, #20]
  str r5, [r4, #24]
  str r5, [r4, #28]
  b .L4838
.L4629:
  ands  r3, r0, #15
  orr r3, r8, r3
  orr r3, r2, r3
  add r1, r1, #1
  strne r3, [r9, #0]
  streq r5, [r9, #0]
  cmp r4, r1
  mov r0, r0, lsr #4
  add r9, r9, #4
  bne .L4629
  b .L4791
.L4475:
  cmp ip, #3
  ldrls r0, [r0, #0]
  bhi .L4839
.L4513:
  mov r1, #0
.L4514:
  ands  r3, r0, #255
  orr r3, r8, r3
  add r1, r1, #1
  strne r3, [r9, #0]
  streq r5, [r9, #0]
  cmp ip, r1
  mov r0, r0, lsr #8
  add r9, r9, #4
  bhi .L4514
  b .L4791
.L4835:
  cmp r4, #3
  ldrls r0, [r0, #4]
  bls .L4267
  ldr r1, [r0, #4]
  ands  r3, r1, #255
  orrne r3, r8, r3
  strne r3, [r9, #12]
  mov r3, r1, lsr #8
  streq r5, [r9, #12]
  ands  r3, r3, #255
  orrne r3, r8, r3
  strne r3, [r9, #8]
  mov r3, r1, lsr #16
  streq r5, [r9, #8]
  ands  r3, r3, #255
  orrne r3, r8, r3
  strne r3, [r9, #4]
  streq r5, [r9, #4]
  movs  r3, r1, lsr #24
  orrne r3, r8, r3
  strne r3, [r9, #0]
  streq r5, [r9, #0]
  subs  r4, r4, #4
  ldr r0, [r0, #0]
  addne r9, r9, #16
  beq .L4791
.L4267:
  mov r1, #0
.L4268:
  movs  r3, r0, lsr #24
  orr r3, r8, r3
  add r1, r1, #1
  strne r3, [r9, #0]
  streq r5, [r9, #0]
  cmp r4, r1
  mov r0, r0, asl #8
  add r9, r9, #4
  bhi .L4268
  b .L4791
.L4823:
  cmp r4, #3
  bls .L4301
  cmp r2, #0
  ldr r1, [lr, #0]
  beq .L4303
  mov r3, r4, asl #3
  sub r3, r3, #32
  mov r1, r1, asl r3
  mov ip, r9
  mov r4, #0
.L4305:
  movs  r3, r1, lsr #24
  orr r3, r8, r3
  add r4, r4, #1
  strne r3, [ip, #0]
  streq r5, [ip, #0]
  cmp r2, r4
  mov r1, r1, asl #8
  add ip, ip, #4
  bne .L4305
  add r9, r9, r2, asl #2
  b .L4303
.L4817:
  cmp r4, #0
  ldr r2, [r3, #0]
  beq .L4641
  mov r3, r1, asl #2
  mov r1, r2, asl r3
  mov ip, #0
  mov r2, r9
.L4643:
  movs  r3, r1, lsr #28
  orr r3, r8, r3
  orr r3, lr, r3
  add ip, ip, #1
  strne r3, [r2, #0]
  streq r5, [r2, #0]
  cmp r4, ip
  mov r1, r1, asl #4
  add r2, r2, #4
  bne .L4643
  add r9, r9, r4, asl #2
  b .L4641
.L4829:
  ldrh  ip, [sl, #0]
  mov r3, ip, asl #22
  mov r3, r3, lsr #22
  tst ip, #2048
  add r0, r0, r3, asl #5
  ldrne r3, [sp, #8]
  mov r2, ip, lsr #12
  addne r0, r0, r3
  tst ip, #1024
  mov r2, r2, asl #4
  beq .L4527
  ldr ip, [sp, #12]
  ldr r0, [r0, #0]
  cmp ip, #0
  beq .L4791
  mov r3, r1, asl #2
  mov r0, r0, asl r3
  mov r1, #0
.L4530:
  movs  r3, r0, lsr #28
  orr r3, r8, r3
  orr r3, r2, r3
  strne r3, [r9, #0]
  ldr r3, [sp, #12]
  add r1, r1, #1
  streq r5, [r9, #0]
  cmp r3, r1
  mov r0, r0, asl #4
  add r9, r9, #4
  bne .L4530
  b .L4791
.L4832:
  ldrh  ip, [sl, #0]
  tst ip, #2048
  mov r3, ip, asl #22
  ldrne r2, [sp, #4]
  mov r3, r3, lsr #22
  add r0, r0, r3, asl #6
  addne r0, r0, r2
  tst ip, #1024
  beq .L4066
  cmp r4, #3
  bls .L4068
  ldr r3, [sp, #12]
  ldr r0, [r0, #0]
  cmp r3, #0
  beq .L4791
  mov r3, r4, asl #3
  sub r3, r3, #32
  mov r0, r0, asl r3
  mov r2, #0
.L4072:
  movs  r3, r0, lsr #24
  ldr ip, [sp, #12]
  orr r3, r8, r3
  add r2, r2, #1
  strne r3, [r9, #0]
  streq r5, [r9, #0]
  cmp ip, r2
  mov r0, r0, asl #8
  add r9, r9, #4
  bne .L4072
  b .L4791
.L4839:
  ldr r1, [r0, #0]
  ands  r3, r1, #255
  orrne r3, r8, r3
  strne r3, [r9, #0]
  mov r3, r1, lsr #8
  streq r5, [r9, #0]
  ands  r3, r3, #255
  orrne r3, r8, r3
  strne r3, [r9, #4]
  mov r3, r1, lsr #16
  streq r5, [r9, #4]
  ands  r3, r3, #255
  orrne r3, r8, r3
  strne r3, [r9, #8]
  streq r5, [r9, #8]
  movs  r3, r1, lsr #24
  orrne r3, r8, r3
  strne r3, [r9, #12]
  streq r5, [r9, #12]
  subs  ip, ip, #4
  ldr r0, [r0, #4]
  addne r9, r9, #16
  bne .L4513
  b .L4791
.L4828:
  ldr r1, [r0, #4]
  ands  r3, r1, #255
  orrne r3, r8, r3
  strne r3, [r9, #12]
  mov r3, r1, lsr #8
  streq r5, [r9, #12]
  ands  r3, r3, #255
  orrne r3, r8, r3
  strne r3, [r9, #8]
  mov r3, r1, lsr #16
  streq r5, [r9, #8]
  ands  r3, r3, #255
  orrne r3, r8, r3
  strne r3, [r9, #4]
  streq r5, [r9, #4]
  movs  r3, r1, lsr #24
  orrne r3, r8, r3
  strne r3, [r9, #0]
  streq r5, [r9, #0]
  subs  ip, ip, #4
  ldr r0, [r0, #0]
  addne r9, r9, #16
  bne .L4492
  b .L4791
.L4066:
  cmp r4, #3
  bls .L4099
  ldr ip, [sp, #12]
  ldr r0, [r0, #4]
  cmp ip, #0
  beq .L4791
  mov r3, r4, asl #3
  sub r3, r3, #32
  mov r0, r0, lsr r3
  mov r2, #0
.L4102:
  ands  r3, r0, #255
  ldr r1, [sp, #12]
  orr r3, r8, r3
  add r2, r2, #1
  strne r3, [r9, #0]
  streq r5, [r9, #0]
  cmp r1, r2
  mov r0, r0, lsr #8
  add r9, r9, #4
  bne .L4102
  b .L4791
.L4131:
  cmp r4, #3
  bls .L4163
  cmp lr, #0
  ldr r2, [r2, #4]
  beq .L4135
  mov r3, r4, asl #3
  sub r3, r3, #32
  mov r1, r2, lsr r3
  mov r2, ip
  mov ip, r9
.L4166:
  ands  r3, r1, #255
  orr r3, r8, r3
  add r2, r2, #1
  strne r3, [ip, #0]
  streq r5, [ip, #0]
  cmp lr, r2
  mov r1, r1, lsr #8
  add ip, ip, #4
  bne .L4166
  b .L4793
.L4301:
  subs  r6, r2, #4
  ldr r1, [lr, #4]
  beq .L4311
  mov r3, r4, asl #3
  sub r3, r3, #32
  mov r1, r1, asl r3
  mov ip, r9
  mov r4, #0
.L4313:
  movs  r3, r1, lsr #24
  orr r3, r8, r3
  add r4, r4, #1
  strne r3, [ip, #0]
  streq r5, [ip, #0]
  cmp r6, r4
  mov r1, r1, asl #8
  add ip, ip, #4
  bne .L4313
  add r3, r9, r2, asl #2
  sub r9, r3, #16
.L4311:
  ldr r2, [lr, #0]
  ands  r3, r2, #255
  orrne r3, r8, r3
  strne r3, [r9, #12]
  mov r3, r2, lsr #8
  streq r5, [r9, #12]
  ands  r3, r3, #255
  orrne r3, r8, r3
  strne r3, [r9, #8]
  mov r3, r2, lsr #16
  streq r5, [r9, #8]
  ands  r3, r3, #255
  orrne r3, r8, r3
  strne r3, [r9, #4]
  streq r5, [r9, #4]
  movs  r3, r2, lsr #24
  orrne r3, r8, r3
  strne r3, [r9, #0]
  streq r5, [r9, #0]
.L4359:
  add r9, r9, #16
  mov r2, r6
  add sl, sl, #2
  b .L4296
.L4331:
  subs  r6, r2, #4
  ldr r1, [lr, #0]
  beq .L4340
  mov r3, r4, asl #3
  mov r1, r1, lsr r3
  mov ip, r9
  mov r4, #0
.L4342:
  ands  r3, r1, #255
  orr r3, r8, r3
  add r4, r4, #1
  strne r3, [ip, #0]
  streq r5, [ip, #0]
  cmp r6, r4
  mov r1, r1, lsr #8
  add ip, ip, #4
  bne .L4342
  add r3, r9, r2, asl #2
  sub r9, r3, #16
.L4340:
  ldr r2, [lr, #4]
  ands  r3, r2, #255
  orrne r3, r8, r3
  strne r3, [r9, #0]
  mov r3, r2, lsr #8
  streq r5, [r9, #0]
  ands  r3, r3, #255
  orrne r3, r8, r3
  strne r3, [r9, #4]
  mov r3, r2, lsr #16
  streq r5, [r9, #4]
  ands  r3, r3, #255
  orrne r3, r8, r3
  strne r3, [r9, #8]
  streq r5, [r9, #8]
  movs  r3, r2, lsr #24
  orrne r3, r8, r3
  strne r3, [r9, #12]
  streq r5, [r9, #12]
  b .L4359
.L4527:
  ldr ip, [sp, #12]
  ldr r0, [r0, #0]
  cmp ip, #0
  beq .L4791
  mov r3, r1, asl #2
  mov r0, r0, lsr r3
  mov r1, #0
.L4536:
  ands  r3, r0, #15
  orr r3, r8, r3
  orr r3, r2, r3
  strne r3, [r9, #0]
  ldr r3, [sp, #12]
  add r1, r1, #1
  streq r5, [r9, #0]
  cmp r3, r1
  mov r0, r0, lsr #4
  add r9, r9, #4
  bne .L4536
  b .L4791
.L4543:
  cmp r4, #0
  ldr r2, [r3, #0]
  beq .L4545
  mov r3, r1, asl #2
  mov r1, r2, lsr r3
  mov ip, #0
  mov r2, r9
.L4554:
  ands  r3, r1, #15
  orr r3, r8, r3
  orr r3, lr, r3
  add ip, ip, #1
  strne r3, [r2, #0]
  streq r5, [r2, #0]
  cmp r4, ip
  mov r1, r1, lsr #4
  add r2, r2, #4
  bne .L4554
  b .L4806
.L4068:
  ldr ip, [sp, #12]
  mov r3, r4, asl #3
  ldr r1, [r0, #4]
  add r2, ip, r4
  sub r3, r3, #32
  cmp r2, #4
  mov r1, r1, asl r3
  bhi .L4077
  cmp ip, #0
  movne r2, #0
  beq .L4791
.L4094:
  movs  r3, r1, lsr #24
  orr r3, r8, r3
  strne r3, [r9, #0]
  ldr r3, [sp, #12]
  add r2, r2, #1
  streq r5, [r9, #0]
  cmp r3, r2
  mov r1, r1, asl #8
  add r9, r9, #4
  bne .L4094
  b .L4791
.L4163:
  subs  r6, lr, #4
  ldr r1, [r2, #0]
  beq .L4172
  mov r3, r4, asl #3
  mov r1, r1, lsr r3
  mov ip, r9
  mov r4, #0
.L4174:
  ands  r3, r1, #255
  orr r3, r8, r3
  add r4, r4, #1
  strne r3, [ip, #0]
  streq r5, [ip, #0]
  cmp r6, r4
  mov r1, r1, lsr #8
  add ip, ip, #4
  bne .L4174
  add r3, r9, lr, asl #2
  sub r9, r3, #16
.L4172:
  ldr r2, [r2, #4]
  ands  r3, r2, #255
  orrne r3, r8, r3
  strne r3, [r9, #0]
  mov r3, r2, lsr #8
  streq r5, [r9, #0]
  ands  r3, r3, #255
  orrne r3, r8, r3
  strne r3, [r9, #4]
  mov r3, r2, lsr #16
  streq r5, [r9, #4]
  ands  r3, r3, #255
  orrne r3, r8, r3
  strne r3, [r9, #8]
  streq r5, [r9, #8]
  movs  r3, r2, lsr #24
  orrne r3, r8, r3
  strne r3, [r9, #12]
  streq r5, [r9, #12]
.L4191:
  add r9, r9, #16
  b .L4135
.L4133:
  subs  r6, lr, #4
  ldr r1, [r2, #4]
  beq .L4143
  mov r3, r4, asl #3
  sub r3, r3, #32
  mov r1, r1, asl r3
  mov ip, r9
  mov r4, #0
.L4145:
  movs  r3, r1, lsr #24
  orr r3, r8, r3
  add r4, r4, #1
  strne r3, [ip, #0]
  streq r5, [ip, #0]
  cmp r6, r4
  mov r1, r1, asl #8
  add ip, ip, #4
  bne .L4145
  add r3, r9, lr, asl #2
  sub r9, r3, #16
.L4143:
  ldr r2, [r2, #0]
  ands  r3, r2, #255
  orrne r3, r8, r3
  strne r3, [r9, #12]
  mov r3, r2, lsr #8
  streq r5, [r9, #12]
  ands  r3, r3, #255
  orrne r3, r8, r3
  strne r3, [r9, #8]
  mov r3, r2, lsr #16
  streq r5, [r9, #8]
  ands  r3, r3, #255
  orrne r3, r8, r3
  strne r3, [r9, #4]
  streq r5, [r9, #4]
  movs  r3, r2, lsr #24
  orrne r3, r8, r3
  strne r3, [r9, #0]
  streq r5, [r9, #0]
  add r9, r9, #16
  b .L4135
.L4099:
  ldr ip, [sp, #12]
  ldr r3, [r0, #0]
  add r2, ip, r4
  cmp r2, #4
  mov r1, r4, asl #3
  mov r2, r3, lsr r1
  bhi .L4107
  cmp ip, #0
  movne r1, #0
  beq .L4791
.L4124:
  ands  r3, r2, #255
  orr r3, r8, r3
  strne r3, [r9, #0]
  ldr r3, [sp, #12]
  add r1, r1, #1
  streq r5, [r9, #0]
  cmp r3, r1
  mov r2, r2, lsr #8
  add r9, r9, #4
  bne .L4124
  b .L4791
.L4077:
  rsbs  r4, r4, #4
  beq .L4080
  mov r2, r9
  mov ip, #0
.L4082:
  movs  r3, r1, lsr #24
  orr r3, r8, r3
  add ip, ip, #1
  strne r3, [r2, #0]
  streq r5, [r2, #0]
  cmp r4, ip
  mov r1, r1, asl #8
  add r2, r2, #4
  bne .L4082
  add r9, r9, r4, asl #2
.L4080:
  ldr r2, [sp, #12]
  ldr r0, [r0, #0]
  subs  r1, r2, r4
  beq .L4791
  mov r2, #0
.L4089:
  movs  r3, r0, lsr #24
  orr r3, r8, r3
  add r2, r2, #1
  strne r3, [r9, #0]
  streq r5, [r9, #0]
  cmp r1, r2
  mov r0, r0, asl #8
  add r9, r9, #4
  bne .L4089
  b .L4791
.L4107:
  rsbs  r4, r4, #4
  beq .L4110
  mov r1, r9
  mov ip, #0
.L4112:
  ands  r3, r2, #255
  orr r3, r8, r3
  add ip, ip, #1
  strne r3, [r1, #0]
  streq r5, [r1, #0]
  cmp r4, ip
  mov r2, r2, lsr #8
  add r1, r1, #4
  bne .L4112
  add r9, r9, r4, asl #2
.L4110:
  ldr r2, [sp, #12]
  ldr r0, [r0, #4]
  subs  r1, r2, r4
  beq .L4791
  mov r2, #0
.L4119:
  ands  r3, r0, #255
  orr r3, r8, r3
  add r2, r2, #1
  strne r3, [r9, #0]
  streq r5, [r9, #0]
  cmp r1, r2
  mov r0, r0, lsr #8
  add r9, r9, #4
  bne .L4119
  b .L4791
  .size render_scanline_text_base_alpha, .-render_scanline_text_base_alpha
  .align  2
  .global render_scanline_text_transparent_alpha
  .type render_scanline_text_transparent_alpha, %function
render_scanline_text_transparent_alpha:
  @ args = 0, pretend = 0, frame = 16
  @ frame_needed = 0, uses_anonymous_args = 0
  stmfd sp!, {r4, r5, r6, r7, r8, r9, sl, fp, lr}
  ldr r5, .L5485
  add lr, r0, #7
  ldrh  ip, [r5, #80]
  sub sp, sp, #16
  mov lr, ip, asr lr
  mov ip, ip, asr r0
  and lr, lr, #2
  and ip, ip, #1
  orr ip, ip, lr
  mov r6, ip, asl #9
  tst r6, #512
  mov r4, r0
  mov ip, r1
  mov r8, r2
  mov sl, r3
  beq .L5463
  add r0, r5, r0, asl #2
  ldrh  r1, [r5, #6]
  ldrh  r3, [r0, #18]
  add r2, r5, r4, asl #1
  add r7, r1, r3
  ldrh  r3, [r0, #16]
  ldrh  lr, [r2, #8]
  mov r5, r7, asl #23
  mov r5, r5, lsr #23
  add r3, r3, ip
  mov r0, lr, lsr #14
  cmp r5, #255
  movls r1, #0
  movhi r1, #1
  mov r4, r3, asl #23
  ldr r3, .L5485+4
  ands  r1, r1, r0, lsr #1
  mov r2, lr, asl #3
  ldr r1, [r3, r0, asl #2]
  ldr r9, .L5485+8
  subne r3, r5, #256
  movne r3, r3, lsr #3
  moveq r3, r7, asl #3
  and r2, r2, #63488
  addne r3, r3, r1, lsr #3
  andeq r3, r3, #1984
  add r2, r2, r9
  addne r1, r2, r3, asl #6
  addeq r1, r2, r3
  mov r4, r4, lsr #23
  tst r0, #1
  andeq r4, r4, #255
  moveq r3, r4, lsr #3
  rsb fp, ip, r8
  addeq r7, r1, r3, asl #1
  add r8, sl, ip, asl #2
  streq r1, [sp, #0]
  bne .L5464
  tst lr, #128
  bne .L5465
.L4853:
  mov r2, lr, asl #12
  and r3, r5, #7
  mov r3, r3, asl #2
  and r1, r4, #255
  and r2, r2, #49152
  rsb r1, r1, #256
  add r2, r2, r3
  mov r3, r3, asl #1
  cmp fp, r1
  rsb r3, r3, #28
  str r1, [sp, #12]
  add lr, r2, r9
  str r3, [sp, #8]
  and r1, r4, #7
  bls .L5466
  cmp r1, #0
  moveq r5, r1
  beq .L5329
  ldrh  ip, [r7, #0]
  rsb r5, r1, #8
  mov r2, ip, asl #22
  mov r2, r2, lsr #22
  tst ip, #2048
  mov r3, ip, lsr #12
  mov r0, r3, asl #4
  add r3, lr, r2, asl #5
  ldrne r2, [sp, #8]
  addne r3, r3, r2
  tst ip, #1024
  bne .L5467
  cmp r5, #0
  ldr r2, [r3, #0]
  beq .L5334
  mov r3, r1, asl #2
  mov r1, r2, lsr r3
  orr r0, r6, r0
  mov r2, r8
  mov ip, #0
.L5342:
  ands  r4, r1, #15
  ldrne r3, [r2, #0]
  add ip, ip, #1
  orrne r3, r4, r3, asl #16
  orrne r3, r3, r0
  strne r3, [r2, #0]
  cmp r5, ip
  mov r1, r1, lsr #4
  add r2, r2, #4
  bne .L5342
  add r8, r8, r5, asl #2
.L5334:
  add r7, r7, #2
.L5329:
  ldr r1, [sp, #12]
  rsb r3, r5, r1
  movs  sl, r3, lsr #3
  beq .L5347
  mov r4, r8
  mov ip, #0
  b .L5349
.L5468:
  ldr r1, [r3, #0]
  cmp r1, #0
  beq .L5354
  ands  r0, r1, #15
  ldrne r3, [r4, #28]
  orrne r2, r6, r5
  orrne r3, r0, r3, asl #16
  orrne r3, r3, r2
  strne r3, [r4, #28]
  mov r3, r1, lsr #4
  ands  r0, r3, #15
  ldrne r3, [r4, #24]
  orrne r2, r6, r5
  orrne r3, r0, r3, asl #16
  orrne r3, r3, r2
  strne r3, [r4, #24]
  mov r3, r1, lsr #8
  ands  r0, r3, #15
  ldrne r3, [r4, #20]
  orrne r2, r6, r5
  orrne r3, r0, r3, asl #16
  orrne r3, r3, r2
  strne r3, [r4, #20]
  mov r3, r1, lsr #12
  ands  r0, r3, #15
  ldrne r3, [r4, #16]
  orrne r2, r6, r5
  orrne r3, r0, r3, asl #16
  orrne r3, r3, r2
  strne r3, [r4, #16]
  mov r3, r1, lsr #16
  ands  r0, r3, #15
  ldrne r3, [r4, #12]
  orrne r2, r6, r5
  orrne r3, r0, r3, asl #16
  orrne r3, r3, r2
  strne r3, [r4, #12]
  mov r3, r1, lsr #20
  ands  r0, r3, #15
  ldrne r3, [r4, #8]
  orrne r2, r6, r5
  orrne r3, r0, r3, asl #16
  orrne r3, r3, r2
  strne r3, [r4, #8]
  mov r3, r1, lsr #24
  ands  r0, r3, #15
  ldrne r3, [r4, #4]
  orrne r2, r6, r5
  orrne r3, r0, r3, asl #16
  orrne r3, r3, r2
  strne r3, [r4, #4]
  movs  r1, r1, lsr #28
  beq .L5354
  ldr r3, [r4, #0]
  orr r2, r6, r5
  orr r3, r1, r3, asl #16
  orr r3, r3, r2
  str r3, [r4, #0]
.L5354:
  add ip, ip, #1
  cmp sl, ip
  add r4, r4, #32
  beq .L5387
.L5469:
  add r7, r7, #2
.L5349:
  ldrh  r1, [r7, #0]
  mov r2, r1, asl #22
  mov r2, r2, lsr #22
  tst r1, #2048
  mov r3, r1, lsr #12
  mov r5, r3, asl #4
  add r3, lr, r2, asl #5
  ldrne r2, [sp, #8]
  addne r3, r3, r2
  tst r1, #1024
  bne .L5468
  ldr r1, [r3, #0]
  cmp r1, #0
  beq .L5354
  ands  r0, r1, #15
  ldrne r3, [r4, #0]
  orrne r2, r6, r5
  orrne r3, r0, r3, asl #16
  orrne r3, r3, r2
  strne r3, [r4, #0]
  mov r3, r1, lsr #4
  ands  r0, r3, #15
  ldrne r3, [r4, #4]
  orrne r2, r6, r5
  orrne r3, r0, r3, asl #16
  orrne r3, r3, r2
  strne r3, [r4, #4]
  mov r3, r1, lsr #8
  ands  r0, r3, #15
  ldrne r3, [r4, #8]
  orrne r2, r6, r5
  orrne r3, r0, r3, asl #16
  orrne r3, r3, r2
  strne r3, [r4, #8]
  mov r3, r1, lsr #12
  ands  r0, r3, #15
  ldrne r3, [r4, #12]
  orrne r2, r6, r5
  orrne r3, r0, r3, asl #16
  orrne r3, r3, r2
  strne r3, [r4, #12]
  mov r3, r1, lsr #16
  ands  r0, r3, #15
  ldrne r3, [r4, #16]
  orrne r2, r6, r5
  orrne r3, r0, r3, asl #16
  orrne r3, r3, r2
  strne r3, [r4, #16]
  mov r3, r1, lsr #20
  ands  r0, r3, #15
  ldrne r3, [r4, #20]
  orrne r2, r6, r5
  orrne r3, r0, r3, asl #16
  orrne r3, r3, r2
  strne r3, [r4, #20]
  mov r3, r1, lsr #24
  ands  r0, r3, #15
  ldrne r3, [r4, #24]
  orrne r2, r6, r5
  orrne r3, r0, r3, asl #16
  orrne r3, r3, r2
  strne r3, [r4, #24]
  movs  r1, r1, lsr #28
  ldrne r3, [r4, #28]
  orrne r2, r6, r5
  orrne r3, r1, r3, asl #16
  orrne r3, r3, r2
  add ip, ip, #1
  strne r3, [r4, #28]
  cmp sl, ip
  add r4, r4, #32
  bne .L5469
.L5387:
  add r8, r8, sl, asl #5
.L5347:
  ldr r3, [sp, #12]
  rsb r9, r3, fp
  movs  sl, r9, lsr #3
  ldreq r1, [sp, #0]
  beq .L5391
  ldr ip, [sp, #0]
  mov r4, r8
  mov r7, #0
  b .L5392
.L5471:
  ldr r1, [r3, #0]
  cmp r1, #0
  beq .L5397
  ands  r0, r1, #15
  ldrne r3, [r4, #28]
  orrne r2, r6, r5
  orrne r3, r0, r3, asl #16
  orrne r3, r3, r2
  strne r3, [r4, #28]
  mov r3, r1, lsr #4
  ands  r0, r3, #15
  ldrne r3, [r4, #24]
  orrne r2, r6, r5
  orrne r3, r0, r3, asl #16
  orrne r3, r3, r2
  strne r3, [r4, #24]
  mov r3, r1, lsr #8
  ands  r0, r3, #15
  ldrne r3, [r4, #20]
  orrne r2, r6, r5
  orrne r3, r0, r3, asl #16
  orrne r3, r3, r2
  strne r3, [r4, #20]
  mov r3, r1, lsr #12
  ands  r0, r3, #15
  ldrne r3, [r4, #16]
  orrne r2, r6, r5
  orrne r3, r0, r3, asl #16
  orrne r3, r3, r2
  strne r3, [r4, #16]
  mov r3, r1, lsr #16
  ands  r0, r3, #15
  ldrne r3, [r4, #12]
  orrne r2, r6, r5
  orrne r3, r0, r3, asl #16
  orrne r3, r3, r2
  strne r3, [r4, #12]
  mov r3, r1, lsr #20
  ands  r0, r3, #15
  ldrne r3, [r4, #8]
  orrne r2, r6, r5
  orrne r3, r0, r3, asl #16
  orrne r3, r3, r2
  strne r3, [r4, #8]
  mov r3, r1, lsr #24
  ands  r0, r3, #15
  ldrne r3, [r4, #4]
  orrne r2, r6, r5
  orrne r3, r0, r3, asl #16
  orrne r3, r3, r2
  strne r3, [r4, #4]
  movs  r1, r1, lsr #28
  beq .L5397
  ldr r3, [r4, #0]
  orr r2, r6, r5
  orr r3, r1, r3, asl #16
  orr r3, r3, r2
  str r3, [r4, #0]
.L5397:
  add r7, r7, #1
  cmp sl, r7
  add r4, r4, #32
  add ip, ip, #2
  beq .L5470
.L5392:
  ldrh  r1, [ip, #0]
  mov r2, r1, asl #22
  mov r2, r2, lsr #22
  tst r1, #2048
  mov r3, r1, lsr #12
  mov r5, r3, asl #4
  add r3, lr, r2, asl #5
  ldrne r2, [sp, #8]
  addne r3, r3, r2
  tst r1, #1024
  bne .L5471
  ldr r1, [r3, #0]
  cmp r1, #0
  beq .L5397
  ands  r0, r1, #15
  ldrne r3, [r4, #0]
  orrne r2, r6, r5
  orrne r3, r0, r3, asl #16
  orrne r3, r3, r2
  strne r3, [r4, #0]
  mov r3, r1, lsr #4
  ands  r0, r3, #15
  ldrne r3, [r4, #4]
  orrne r2, r6, r5
  orrne r3, r0, r3, asl #16
  orrne r3, r3, r2
  strne r3, [r4, #4]
  mov r3, r1, lsr #8
  ands  r0, r3, #15
  ldrne r3, [r4, #8]
  orrne r2, r6, r5
  orrne r3, r0, r3, asl #16
  orrne r3, r3, r2
  strne r3, [r4, #8]
  mov r3, r1, lsr #12
  ands  r0, r3, #15
  ldrne r3, [r4, #12]
  orrne r2, r6, r5
  orrne r3, r0, r3, asl #16
  orrne r3, r3, r2
  strne r3, [r4, #12]
  mov r3, r1, lsr #16
  ands  r0, r3, #15
  ldrne r3, [r4, #16]
  orrne r2, r6, r5
  orrne r3, r0, r3, asl #16
  orrne r3, r3, r2
  strne r3, [r4, #16]
  mov r3, r1, lsr #20
  ands  r0, r3, #15
  ldrne r3, [r4, #20]
  orrne r2, r6, r5
  orrne r3, r0, r3, asl #16
  orrne r3, r3, r2
  strne r3, [r4, #20]
  mov r3, r1, lsr #24
  ands  r0, r3, #15
  ldrne r3, [r4, #24]
  orrne r2, r6, r5
  orrne r3, r0, r3, asl #16
  orrne r3, r3, r2
  strne r3, [r4, #24]
  movs  r1, r1, lsr #28
  ldrne r3, [r4, #28]
  orrne r2, r6, r5
  orrne r3, r1, r3, asl #16
  orrne r3, r3, r2
  add r7, r7, #1
  strne r3, [r4, #28]
  cmp sl, r7
  add r4, r4, #32
  add ip, ip, #2
  bne .L5392
.L5470:
  ldr r3, [sp, #0]
  add r8, r8, sl, asl #5
  add r1, r3, sl, asl #1
.L5391:
  ands  r4, r9, #7
  beq .L5444
  ldrh  r1, [r1, #0]
  mov r3, r1, asl #22
  mov r3, r3, lsr #22
  tst r1, #2048
  add r0, lr, r3, asl #5
  ldrne r3, [sp, #8]
  mov r2, r1, lsr #12
  addne r0, r0, r3
  mov r2, r2, asl #4
  tst r1, #1024
  ldreq r0, [r0, #0]
  orreq r2, r6, r2
  moveq lr, #0
  beq .L5440
  ldr r0, [r0, #0]
  orr r2, r6, r2
  mov lr, #0
.L5436:
  movs  r1, r0, lsr #28
  ldrne r3, [r8, #0]
  add lr, lr, #1
  orrne r3, r1, r3, asl #16
  orrne r3, r3, r2
  strne r3, [r8, #0]
  cmp r4, lr
  mov r0, r0, asl #4
  add r8, r8, #4
  bne .L5436
.L5444:
  add sp, sp, #16
  ldmfd sp!, {r4, r5, r6, r7, r8, r9, sl, fp, pc}
.L5465:
  and r3, r5, #7
  mov r2, lr, asl #12
  mov r3, r3, asl #3
  and r1, r4, #255
  and r2, r2, #49152
  add r2, r2, r3
  rsb sl, r1, #256
  mov r3, r3, asl #1
  rsb r3, r3, #56
  cmp fp, sl
  add r0, r2, r9
  str r3, [sp, #4]
  and ip, r4, #7
  bls .L5472
  cmp ip, #0
  moveq lr, ip
  beq .L5055
  ldrh  r2, [r7, #0]
  rsb lr, ip, #8
  mov r3, r2, asl #22
  mov r3, r3, lsr #22
  tst r2, #2048
  add r5, r0, r3, asl #6
  ldrne r3, [sp, #4]
  addne r5, r5, r3
  ands  r2, r2, #1024
  bne .L5473
  cmp ip, #3
  bls .L5085
  cmp lr, #0
  ldr r1, [r5, #4]
  beq .L5062
  mov r3, ip, asl #3
  sub r3, r3, #32
  mov r1, r1, lsr r3
  mov r4, r2
  mov r2, r8
.L5088:
  ands  r3, r1, #255
  orr ip, r6, r3
  ldrne r3, [r2, #0]
  add r4, r4, #1
  orrne r3, ip, r3, asl #16
  strne r3, [r2, #0]
  cmp lr, r4
  mov r1, r1, lsr #8
  add r2, r2, #4
  bne .L5088
  add r8, r8, lr, asl #2
.L5062:
  add r7, r7, #2
.L5055:
  rsb r3, lr, sl
  movs  lr, r3, lsr #3
  beq .L5109
  mov r4, r8
  mov ip, #0
  b .L5111
.L5474:
  ldr r1, [r5, #4]
  cmp r1, #0
  beq .L5116
  ands  r3, r1, #255
  ldrne r2, [r4, #12]
  orrne r3, r6, r3
  orrne r3, r3, r2, asl #16
  strne r3, [r4, #12]
  mov r3, r1, lsr #8
  ands  r3, r3, #255
  ldrne r2, [r4, #8]
  orrne r3, r6, r3
  orrne r3, r3, r2, asl #16
  strne r3, [r4, #8]
  mov r3, r1, lsr #16
  ands  r3, r3, #255
  ldrne r2, [r4, #4]
  orrne r3, r6, r3
  orrne r3, r3, r2, asl #16
  strne r3, [r4, #4]
  movs  r3, r1, lsr #24
  ldrne r2, [r4, #0]
  orrne r3, r6, r3
  orrne r3, r3, r2, asl #16
  strne r3, [r4, #0]
.L5116:
  ldr r1, [r5, #0]
  cmp r1, #0
  beq .L5125
  ands  r3, r1, #255
  ldrne r2, [r4, #28]
  orrne r3, r6, r3
  orrne r3, r3, r2, asl #16
  strne r3, [r4, #28]
  mov r3, r1, lsr #8
  ands  r3, r3, #255
  ldrne r2, [r4, #24]
  orrne r3, r6, r3
  orrne r3, r3, r2, asl #16
  strne r3, [r4, #24]
  mov r3, r1, lsr #16
  ands  r3, r3, #255
  ldrne r2, [r4, #20]
  orrne r3, r6, r3
  orrne r3, r3, r2, asl #16
  strne r3, [r4, #20]
  movs  r3, r1, lsr #24
  ldrne r2, [r4, #16]
  orrne r3, r6, r3
  orrne r3, r3, r2, asl #16
  strne r3, [r4, #16]
.L5125:
  add ip, ip, #1
  cmp lr, ip
  add r4, r4, #32
  beq .L5151
.L5475:
  add r7, r7, #2
.L5111:
  ldrh  r2, [r7, #0]
  tst r2, #2048
  mov r3, r2, asl #22
  ldrne r1, [sp, #4]
  mov r3, r3, lsr #22
  add r5, r0, r3, asl #6
  addne r5, r5, r1
  tst r2, #1024
  bne .L5474
  ldr r1, [r5, #0]
  cmp r1, #0
  beq .L5134
  ands  r3, r1, #255
  ldrne r2, [r4, #0]
  orrne r3, r6, r3
  orrne r3, r3, r2, asl #16
  strne r3, [r4, #0]
  mov r3, r1, lsr #8
  ands  r3, r3, #255
  ldrne r2, [r4, #4]
  orrne r3, r6, r3
  orrne r3, r3, r2, asl #16
  strne r3, [r4, #4]
  mov r3, r1, lsr #16
  ands  r3, r3, #255
  ldrne r2, [r4, #8]
  orrne r3, r6, r3
  orrne r3, r3, r2, asl #16
  strne r3, [r4, #8]
  movs  r3, r1, lsr #24
  ldrne r2, [r4, #12]
  orrne r3, r6, r3
  orrne r3, r3, r2, asl #16
  strne r3, [r4, #12]
.L5134:
  ldr r1, [r5, #4]
  cmp r1, #0
  beq .L5125
  ands  r3, r1, #255
  ldrne r2, [r4, #16]
  orrne r3, r6, r3
  orrne r3, r3, r2, asl #16
  strne r3, [r4, #16]
  mov r3, r1, lsr #8
  ands  r3, r3, #255
  ldrne r2, [r4, #20]
  orrne r3, r6, r3
  orrne r3, r3, r2, asl #16
  strne r3, [r4, #20]
  mov r3, r1, lsr #16
  ands  r3, r3, #255
  ldrne r2, [r4, #24]
  orrne r3, r6, r3
  orrne r3, r3, r2, asl #16
  strne r3, [r4, #24]
  movs  r3, r1, lsr #24
  ldrne r2, [r4, #28]
  orrne r3, r6, r3
  orrne r3, r3, r2, asl #16
  add ip, ip, #1
  strne r3, [r4, #28]
  cmp lr, ip
  add r4, r4, #32
  bne .L5475
.L5151:
  add r8, r8, lr, asl #5
.L5109:
  rsb lr, sl, fp
  movs  sl, lr, lsr #3
  ldreq r1, [sp, #0]
  beq .L5155
  ldr ip, [sp, #0]
  mov r4, r8
  mov r7, #0
  b .L5156
.L5477:
  ldr r1, [r5, #4]
  cmp r1, #0
  beq .L5161
  ands  r3, r1, #255
  ldrne r2, [r4, #12]
  orrne r3, r6, r3
  orrne r3, r3, r2, asl #16
  strne r3, [r4, #12]
  mov r3, r1, lsr #8
  ands  r3, r3, #255
  ldrne r2, [r4, #8]
  orrne r3, r6, r3
  orrne r3, r3, r2, asl #16
  strne r3, [r4, #8]
  mov r3, r1, lsr #16
  ands  r3, r3, #255
  ldrne r2, [r4, #4]
  orrne r3, r6, r3
  orrne r3, r3, r2, asl #16
  strne r3, [r4, #4]
  movs  r3, r1, lsr #24
  ldrne r2, [r4, #0]
  orrne r3, r6, r3
  orrne r3, r3, r2, asl #16
  strne r3, [r4, #0]
.L5161:
  ldr r1, [r5, #0]
  cmp r1, #0
  beq .L5170
  ands  r3, r1, #255
  ldrne r2, [r4, #28]
  orrne r3, r6, r3
  orrne r3, r3, r2, asl #16
  strne r3, [r4, #28]
  mov r3, r1, lsr #8
  ands  r3, r3, #255
  ldrne r2, [r4, #24]
  orrne r3, r6, r3
  orrne r3, r3, r2, asl #16
  strne r3, [r4, #24]
  mov r3, r1, lsr #16
  ands  r3, r3, #255
  ldrne r2, [r4, #20]
  orrne r3, r6, r3
  orrne r3, r3, r2, asl #16
  strne r3, [r4, #20]
  movs  r3, r1, lsr #24
  ldrne r2, [r4, #16]
  orrne r3, r6, r3
  orrne r3, r3, r2, asl #16
  strne r3, [r4, #16]
.L5170:
  add r7, r7, #1
  cmp sl, r7
  add r4, r4, #32
  add ip, ip, #2
  beq .L5476
.L5156:
  ldrh  r2, [ip, #0]
  mov r3, r2, asl #22
  mov r3, r3, lsr #22
  tst r2, #2048
  add r5, r0, r3, asl #6
  ldrne r3, [sp, #4]
  addne r5, r5, r3
  tst r2, #1024
  bne .L5477
  ldr r1, [r5, #0]
  cmp r1, #0
  beq .L5179
  ands  r3, r1, #255
  ldrne r2, [r4, #0]
  orrne r3, r6, r3
  orrne r3, r3, r2, asl #16
  strne r3, [r4, #0]
  mov r3, r1, lsr #8
  ands  r3, r3, #255
  ldrne r2, [r4, #4]
  orrne r3, r6, r3
  orrne r3, r3, r2, asl #16
  strne r3, [r4, #4]
  mov r3, r1, lsr #16
  ands  r3, r3, #255
  ldrne r2, [r4, #8]
  orrne r3, r6, r3
  orrne r3, r3, r2, asl #16
  strne r3, [r4, #8]
  movs  r3, r1, lsr #24
  ldrne r2, [r4, #12]
  orrne r3, r6, r3
  orrne r3, r3, r2, asl #16
  strne r3, [r4, #12]
.L5179:
  ldr r1, [r5, #4]
  cmp r1, #0
  beq .L5170
  ands  r3, r1, #255
  ldrne r2, [r4, #16]
  orrne r3, r6, r3
  orrne r3, r3, r2, asl #16
  strne r3, [r4, #16]
  mov r3, r1, lsr #8
  ands  r3, r3, #255
  ldrne r2, [r4, #20]
  orrne r3, r6, r3
  orrne r3, r3, r2, asl #16
  strne r3, [r4, #20]
  mov r3, r1, lsr #16
  ands  r3, r3, #255
  ldrne r2, [r4, #24]
  orrne r3, r6, r3
  orrne r3, r3, r2, asl #16
  strne r3, [r4, #24]
  movs  r3, r1, lsr #24
  ldrne r2, [r4, #28]
  orrne r3, r6, r3
  orrne r3, r3, r2, asl #16
  add r7, r7, #1
  strne r3, [r4, #28]
  cmp sl, r7
  add r4, r4, #32
  add ip, ip, #2
  bne .L5156
.L5476:
  ldr r2, [sp, #0]
  add r8, r8, sl, asl #5
  add r1, r2, sl, asl #1
.L5155:
  ands  ip, lr, #7
  beq .L5444
  ldrh  r1, [r1, #0]
  mov r3, r1, asl #22
  mov r3, r3, lsr #22
  tst r1, #2048
  add r0, r0, r3, asl #6
  ldrne r3, [sp, #4]
  addne r0, r0, r3
  tst r1, #1024
  beq .L5200
  cmp ip, #3
  ldrls r0, [r0, #4]
  bls .L5214
  ldr r1, [r0, #4]
  cmp r1, #0
  beq .L5204
  ands  r3, r1, #255
  ldrne r2, [r8, #12]
  orrne r3, r6, r3
  orrne r3, r3, r2, asl #16
  strne r3, [r8, #12]
  mov r3, r1, lsr #8
  ands  r3, r3, #255
  ldrne r2, [r8, #8]
  orrne r3, r6, r3
  orrne r3, r3, r2, asl #16
  strne r3, [r8, #8]
  mov r3, r1, lsr #16
  ands  r3, r3, #255
  ldrne r2, [r8, #4]
  orrne r3, r6, r3
  orrne r3, r3, r2, asl #16
  strne r3, [r8, #4]
  movs  r3, r1, lsr #24
  ldrne r2, [r8, #0]
  orrne r3, r6, r3
  orrne r3, r3, r2, asl #16
  strne r3, [r8, #0]
.L5204:
  subs  ip, ip, #4
  ldr r0, [r0, #0]
